LARM LINKER/LOCATER V2.53                                                               06/10/2009  17:43:23  PAGE 1





ASSEMBLER CODE LISTING OF MODULE:  .\Obj\GLCD123 (STARTUP)



*** Disassembly of Segment '?CON?bmp_Maska':
    6: unsigned char const maska_bmp[1024] = {
 00000120            ALIGN       1
 00000120          maska_bmp:
 00000120  00        DB          0x0
 00000121  00        DB          0x0
 00000122  00        DB          0x0
 00000123  00        DB          0x0
 00000124  04        DB          0x4
 00000125  0A        DB          0xA
 00000126  3A        DB          0x3A
 00000127  3E        DB          0x3E
 00000128  7A        DB          0x7A
 00000129  D2        DB          0xD2
 0000012A  D0        DB          0xD0
 0000012B  D0        DB          0xD0
 0000012C  D0        DB          0xD0
 0000012D  D0        DB          0xD0
 0000012E  D0        DB          0xD0
 0000012F  30        DB          0x30
 00000130  BC        DB          0xBC
 00000131  3C        DB          0x3C
 00000132  AC        DB          0xAC
 00000133  AC        DB          0xAC
 00000134  F6        DB          0xF6
 00000135  F7        DB          0xF7
 00000136  FF        DB          0xFF
 00000137  6E        DB          0x6E
 00000138  FE        DB          0xFE
 00000139  BE        DB          0xBE
 0000013A  7E        DB          0x7E
 0000013B  7E        DB          0x7E
 0000013C  5C        DB          0x5C
 0000013D  98        DB          0x98
 0000013E  60        DB          0x60
 0000013F  00        DB          0x0
 00000140  00        DB          0x0
 00000141  00        DB          0x0
 00000142  00        DB          0x0
 00000143  00        DB          0x0
 00000144  00        DB          0x0
 00000145  00        DB          0x0
 00000146  00        DB          0x0
 00000147  00        DB          0x0
 00000148  00        DB          0x0
 00000149  00        DB          0x0
 0000014A  00        DB          0x0
 0000014B  00        DB          0x0
 0000014C  00        DB          0x0
 0000014D  00        DB          0x0
 0000014E  00        DB          0x0
 0000014F  00        DB          0x0
 00000150  00        DB          0x0
 00000151  00        DB          0x0
 00000152  00        DB          0x0
 00000153  00        DB          0x0
 00000154  00        DB          0x0
 00000155  00        DB          0x0
 00000156  00        DB          0x0
LARM LINKER/LOCATER V2.53                                                             06/10/2009  17:43:23  PAGE 2


 00000157  00        DB          0x0
 00000158  00        DB          0x0
 00000159  00        DB          0x0
 0000015A  00        DB          0x0
 0000015B  00        DB          0x0
 0000015C  00        DB          0x0
 0000015D  00        DB          0x0
 0000015E  00        DB          0x0
 0000015F  00        DB          0x0
 00000160  80        DB          0x80
 00000161  80        DB          0x80
 00000162  80        DB          0x80
 00000163  80        DB          0x80
 00000164  00        DB          0x0
 00000165  81        DB          0x81
 00000166  81        DB          0x81
 00000167  8D        DB          0x8D
 00000168  8F        DB          0x8F
 00000169  88        DB          0x88
 0000016A  C0        DB          0xC0
 0000016B  50        DB          0x50
 0000016C  D0        DB          0xD0
 0000016D  C8        DB          0xC8
 0000016E  08        DB          0x8
 0000016F  08        DB          0x8
 00000170  8C        DB          0x8C
 00000171  0C        DB          0xC
 00000172  3A        DB          0x3A
 00000173  3A        DB          0x3A
 00000174  47        DB          0x47
 00000175  82        DB          0x82
 00000176  87        DB          0x87
 00000177  00        DB          0x0
 00000178  A1        DB          0xA1
 00000179  D0        DB          0xD0
 0000017A  70        DB          0x70
 0000017B  F0        DB          0xF0
 0000017C  A0        DB          0xA0
 0000017D  A6        DB          0xA6
 0000017E  A6        DB          0xA6
 0000017F  99        DB          0x99
 00000180  8B        DB          0x8B
 00000181  8E        DB          0x8E
 00000182  8D        DB          0x8D
 00000183  8F        DB          0x8F
 00000184  0F        DB          0xF
 00000185  1B        DB          0x1B
 00000186  17        DB          0x17
 00000187  17        DB          0x17
 00000188  1B        DB          0x1B
 00000189  0F        DB          0xF
 0000018A  0F        DB          0xF
 0000018B  8F        DB          0x8F
 0000018C  BE        DB          0xBE
 0000018D  BB        DB          0xBB
 0000018E  BF        DB          0xBF
 0000018F  9F        DB          0x9F
 00000190  CC        DB          0xCC
 00000191  8C        DB          0x8C
 00000192  8F        DB          0x8F
 00000193  F6        DB          0xF6
 00000194  F6        DB          0xF6
 00000195  F6        DB          0xF6
 00000196  E6        DB          0xE6
 00000197  BD        DB          0xBD
LARM LINKER/LOCATER V2.53                                                             06/10/2009  17:43:23  PAGE 3


 00000198  FF        DB          0xFF
 00000199  B1        DB          0xB1
 0000019A  BD        DB          0xBD
 0000019B  EE        DB          0xEE
 0000019C  C3        DB          0xC3
 0000019D  4C        DB          0x4C
 0000019E  00        DB          0x0
 0000019F  00        DB          0x0
 000001A0  00        DB          0x0
 000001A1  00        DB          0x0
 000001A2  00        DB          0x0
 000001A3  00        DB          0x0
 000001A4  00        DB          0x0
 000001A5  00        DB          0x0
 000001A6  00        DB          0x0
 000001A7  18        DB          0x18
 000001A8  1C        DB          0x1C
 000001A9  DE        DB          0xDE
 000001AA  7E        DB          0x7E
 000001AB  7B        DB          0x7B
 000001AC  39        DB          0x39
 000001AD  3F        DB          0x3F
 000001AE  7D        DB          0x7D
 000001AF  78        DB          0x78
 000001B0  0F        DB          0xF
 000001B1  0F        DB          0xF
 000001B2  03        DB          0x3
 000001B3  03        DB          0x3
 000001B4  41        DB          0x41
 000001B5  C1        DB          0xC1
 000001B6  E1        DB          0xE1
 000001B7  C1        DB          0xC1
 000001B8  C0        DB          0xC0
 000001B9  C0        DB          0xC0
 000001BA  00        DB          0x0
 000001BB  00        DB          0x0
 000001BC  00        DB          0x0
 000001BD  00        DB          0x0
 000001BE  00        DB          0x0
 000001BF  00        DB          0x0
 000001C0  00        DB          0x0
 000001C1  00        DB          0x0
 000001C2  00        DB          0x0
 000001C3  00        DB          0x0
 000001C4  00        DB          0x0
 000001C5  00        DB          0x0
 000001C6  00        DB          0x0
 000001C7  00        DB          0x0
 000001C8  00        DB          0x0
 000001C9  00        DB          0x0
 000001CA  00        DB          0x0
 000001CB  00        DB          0x0
 000001CC  00        DB          0x0
 000001CD  00        DB          0x0
 000001CE  00        DB          0x0
 000001CF  00        DB          0x0
 000001D0  00        DB          0x0
 000001D1  00        DB          0x0
 000001D2  00        DB          0x0
 000001D3  00        DB          0x0
 000001D4  00        DB          0x0
 000001D5  00        DB          0x0
 000001D6  00        DB          0x0
 000001D7  00        DB          0x0
 000001D8  00        DB          0x0
LARM LINKER/LOCATER V2.53                                                             06/10/2009  17:43:23  PAGE 4


 000001D9  00        DB          0x0
 000001DA  00        DB          0x0
 000001DB  00        DB          0x0
 000001DC  00        DB          0x0
 000001DD  62        DB          0x62
 000001DE  63        DB          0x63
 000001DF  1D        DB          0x1D
 000001E0  99        DB          0x99
 000001E1  C0        DB          0xC0
 000001E2  42        DB          0x42
 000001E3  C7        DB          0xC7
 000001E4  84        DB          0x84
 000001E5  84        DB          0x84
 000001E6  85        DB          0x85
 000001E7  87        DB          0x87
 000001E8  00        DB          0x0
 000001E9  00        DB          0x0
 000001EA  80        DB          0x80
 000001EB  50        DB          0x50
 000001EC  78        DB          0x78
 000001ED  51        DB          0x51
 000001EE  71        DB          0x71
 000001EF  76        DB          0x76
 000001F0  7E        DB          0x7E
 000001F1  3F        DB          0x3F
 000001F2  1F        DB          0x1F
 000001F3  16        DB          0x16
 000001F4  E3        DB          0xE3
 000001F5  FD        DB          0xFD
 000001F6  F8        DB          0xF8
 000001F7  E0        DB          0xE0
 000001F8  C0        DB          0xC0
 000001F9  C1        DB          0xC1
 000001FA  C2        DB          0xC2
 000001FB  C2        DB          0xC2
 000001FC  C2        DB          0xC2
 000001FD  C3        DB          0xC3
 000001FE  81        DB          0x81
 000001FF  00        DB          0x0
 00000200  01        DB          0x1
 00000201  83        DB          0x83
 00000202  83        DB          0x83
 00000203  BF        DB          0xBF
 00000204  BF        DB          0xBF
 00000205  E6        DB          0xE6
 00000206  EA        DB          0xEA
 00000207  EA        DB          0xEA
 00000208  BC        DB          0xBC
 00000209  F8        DB          0xF8
 0000020A  F1        DB          0xF1
 0000020B  C3        DB          0xC3
 0000020C  42        DB          0x42
 0000020D  47        DB          0x47
 0000020E  81        DB          0x81
 0000020F  85        DB          0x85
 00000210  85        DB          0x85
 00000211  AE        DB          0xAE
 00000212  FF        DB          0xFF
 00000213  FF        DB          0xFF
 00000214  F7        DB          0xF7
 00000215  FF        DB          0xFF
 00000216  FF        DB          0xFF
 00000217  FE        DB          0xFE
 00000218  FE        DB          0xFE
 00000219  FF        DB          0xFF
LARM LINKER/LOCATER V2.53                                                             06/10/2009  17:43:23  PAGE 5


 0000021A  FB        DB          0xFB
 0000021B  FD        DB          0xFD
 0000021C  D2        DB          0xD2
 0000021D  D0        DB          0xD0
 0000021E  00        DB          0x0
 0000021F  00        DB          0x0
 00000220  00        DB          0x0
 00000221  00        DB          0x0
 00000222  00        DB          0x0
 00000223  00        DB          0x0
 00000224  20        DB          0x20
 00000225  3C        DB          0x3C
 00000226  34        DB          0x34
 00000227  F7        DB          0xF7
 00000228  FE        DB          0xFE
 00000229  F1        DB          0xF1
 0000022A  F5        DB          0xF5
 0000022B  EF        DB          0xEF
 0000022C  FF        DB          0xFF
 0000022D  BC        DB          0xBC
 0000022E  B6        DB          0xB6
 0000022F  FE        DB          0xFE
 00000230  FC        DB          0xFC
 00000231  E6        DB          0xE6
 00000232  F3        DB          0xF3
 00000233  E9        DB          0xE9
 00000234  F7        DB          0xF7
 00000235  97        DB          0x97
 00000236  99        DB          0x99
 00000237  FF        DB          0xFF
 00000238  F7        DB          0xF7
 00000239  F3        DB          0xF3
 0000023A  DF        DB          0xDF
 0000023B  DD        DB          0xDD
 0000023C  FC        DB          0xFC
 0000023D  78        DB          0x78
 0000023E  78        DB          0x78
 0000023F  F8        DB          0xF8
 00000240  68        DB          0x68
 00000241  78        DB          0x78
 00000242  F8        DB          0xF8
 00000243  70        DB          0x70
 00000244  70        DB          0x70
 00000245  30        DB          0x30
 00000246  10        DB          0x10
 00000247  10        DB          0x10
 00000248  10        DB          0x10
 00000249  10        DB          0x10
 0000024A  10        DB          0x10
 0000024B  10        DB          0x10
 0000024C  10        DB          0x10
 0000024D  10        DB          0x10
 0000024E  10        DB          0x10
 0000024F  10        DB          0x10
 00000250  10        DB          0x10
 00000251  10        DB          0x10
 00000252  10        DB          0x10
 00000253  10        DB          0x10
 00000254  10        DB          0x10
 00000255  10        DB          0x10
 00000256  10        DB          0x10
 00000257  10        DB          0x10
 00000258  10        DB          0x10
 00000259  10        DB          0x10
 0000025A  10        DB          0x10
LARM LINKER/LOCATER V2.53                                                             06/10/2009  17:43:23  PAGE 6


 0000025B  10        DB          0x10
 0000025C  10        DB          0x10
 0000025D  10        DB          0x10
 0000025E  10        DB          0x10
 0000025F  10        DB          0x10
 00000260  10        DB          0x10
 00000261  10        DB          0x10
 00000262  10        DB          0x10
 00000263  10        DB          0x10
 00000264  10        DB          0x10
 00000265  10        DB          0x10
 00000266  10        DB          0x10
 00000267  11        DB          0x11
 00000268  11        DB          0x11
 00000269  11        DB          0x11
 0000026A  11        DB          0x11
 0000026B  10        DB          0x10
 0000026C  10        DB          0x10
 0000026D  10        DB          0x10
 0000026E  10        DB          0x10
 0000026F  10        DB          0x10
 00000270  10        DB          0x10
 00000271  10        DB          0x10
 00000272  10        DB          0x10
 00000273  10        DB          0x10
 00000274  1F        DB          0x1F
 00000275  1F        DB          0x1F
 00000276  1F        DB          0x1F
 00000277  1F        DB          0x1F
 00000278  11        DB          0x11
 00000279  11        DB          0x11
 0000027A  11        DB          0x11
 0000027B  11        DB          0x11
 0000027C  11        DB          0x11
 0000027D  11        DB          0x11
 0000027E  11        DB          0x11
 0000027F  12        DB          0x12
 00000280  12        DB          0x12
 00000281  19        DB          0x19
 00000282  19        DB          0x19
 00000283  2C        DB          0x2C
 00000284  0F        DB          0xF
 00000285  1F        DB          0x1F
 00000286  3F        DB          0x3F
 00000287  3F        DB          0x3F
 00000288  6F        DB          0x6F
 00000289  7F        DB          0x7F
 0000028A  3A        DB          0x3A
 0000028B  3F        DB          0x3F
 0000028C  77        DB          0x77
 0000028D  77        DB          0x77
 0000028E  FF        DB          0xFF
 0000028F  BF        DB          0xBF
 00000290  35        DB          0x35
 00000291  16        DB          0x16
 00000292  1F        DB          0x1F
 00000293  0B        DB          0xB
 00000294  1F        DB          0x1F
 00000295  1F        DB          0x1F
 00000296  2F        DB          0x2F
 00000297  3F        DB          0x3F
 00000298  3F        DB          0x3F
 00000299  FF        DB          0xFF
 0000029A  CF        DB          0xCF
 0000029B  FF        DB          0xFF
LARM LINKER/LOCATER V2.53                                                             06/10/2009  17:43:23  PAGE 7


 0000029C  FF        DB          0xFF
 0000029D  2F        DB          0x2F
 0000029E  25        DB          0x25
 0000029F  00        DB          0x0
 000002A0  00        DB          0x0
 000002A1  00        DB          0x0
 000002A2  00        DB          0x0
 000002A3  00        DB          0x0
 000002A4  00        DB          0x0
 000002A5  00        DB          0x0
 000002A6  20        DB          0x20
 000002A7  FB        DB          0xFB
 000002A8  FF        DB          0xFF
 000002A9  FF        DB          0xFF
 000002AA  FF        DB          0xFF
 000002AB  FF        DB          0xFF
 000002AC  FF        DB          0xFF
 000002AD  83        DB          0x83
 000002AE  81        DB          0x81
 000002AF  C1        DB          0xC1
 000002B0  E3        DB          0xE3
 000002B1  E3        DB          0xE3
 000002B2  33        DB          0x33
 000002B3  37        DB          0x37
 000002B4  E5        DB          0xE5
 000002B5  C7        DB          0xC7
 000002B6  07        DB          0x7
 000002B7  0F        DB          0xF
 000002B8  0B        DB          0xB
 000002B9  1B        DB          0x1B
 000002BA  1F        DB          0x1F
 000002BB  1C        DB          0x1C
 000002BC  38        DB          0x38
 000002BD  F0        DB          0xF0
 000002BE  60        DB          0x60
 000002BF  60        DB          0x60
 000002C0  61        DB          0x61
 000002C1  61        DB          0x61
 000002C2  61        DB          0x61
 000002C3  61        DB          0x61
 000002C4  60        DB          0x60
 000002C5  60        DB          0x60
 000002C6  60        DB          0x60
 000002C7  60        DB          0x60
 000002C8  60        DB          0x60
 000002C9  60        DB          0x60
 000002CA  60        DB          0x60
 000002CB  60        DB          0x60
 000002CC  60        DB          0x60
 000002CD  60        DB          0x60
 000002CE  60        DB          0x60
 000002CF  60        DB          0x60
 000002D0  60        DB          0x60
 000002D1  60        DB          0x60
 000002D2  60        DB          0x60
 000002D3  60        DB          0x60
 000002D4  60        DB          0x60
 000002D5  60        DB          0x60
 000002D6  E0        DB          0xE0
 000002D7  60        DB          0x60
 000002D8  60        DB          0x60
 000002D9  60        DB          0x60
 000002DA  60        DB          0x60
 000002DB  60        DB          0x60
 000002DC  60        DB          0x60
LARM LINKER/LOCATER V2.53                                                             06/10/2009  17:43:23  PAGE 8


 000002DD  60        DB          0x60
 000002DE  60        DB          0x60
 000002DF  60        DB          0x60
 000002E0  60        DB          0x60
 000002E1  60        DB          0x60
 000002E2  60        DB          0x60
 000002E3  60        DB          0x60
 000002E4  60        DB          0x60
 000002E5  60        DB          0x60
 000002E6  60        DB          0x60
 000002E7  60        DB          0x60
 000002E8  60        DB          0x60
 000002E9  60        DB          0x60
 000002EA  60        DB          0x60
 000002EB  60        DB          0x60
 000002EC  60        DB          0x60
 000002ED  60        DB          0x60
 000002EE  60        DB          0x60
 000002EF  60        DB          0x60
 000002F0  60        DB          0x60
 000002F1  60        DB          0x60
 000002F2  60        DB          0x60
 000002F3  60        DB          0x60
 000002F4  60        DB          0x60
 000002F5  60        DB          0x60
 000002F6  60        DB          0x60
 000002F7  60        DB          0x60
 000002F8  60        DB          0x60
 000002F9  60        DB          0x60
 000002FA  60        DB          0x60
 000002FB  60        DB          0x60
 000002FC  60        DB          0x60
 000002FD  60        DB          0x60
 000002FE  60        DB          0x60
 000002FF  60        DB          0x60
 00000300  60        DB          0x60
 00000301  60        DB          0x60
 00000302  60        DB          0x60
 00000303  60        DB          0x60
 00000304  60        DB          0x60
 00000305  60        DB          0x60
 00000306  60        DB          0x60
 00000307  60        DB          0x60
 00000308  60        DB          0x60
 00000309  60        DB          0x60
 0000030A  60        DB          0x60
 0000030B  60        DB          0x60
 0000030C  60        DB          0x60
 0000030D  60        DB          0x60
 0000030E  60        DB          0x60
 0000030F  61        DB          0x61
 00000310  63        DB          0x63
 00000311  62        DB          0x62
 00000312  66        DB          0x66
 00000313  6C        DB          0x6C
 00000314  F8        DB          0xF8
 00000315  F0        DB          0xF0
 00000316  60        DB          0x60
 00000317  60        DB          0x60
 00000318  00        DB          0x0
 00000319  FF        DB          0xFF
 0000031A  FF        DB          0xFF
 0000031B  FF        DB          0xFF
 0000031C  FF        DB          0xFF
 0000031D  00        DB          0x0
LARM LINKER/LOCATER V2.53                                                             06/10/2009  17:43:23  PAGE 9


 0000031E  00        DB          0x0
 0000031F  00        DB          0x0
 00000320  00        DB          0x0
 00000321  00        DB          0x0
 00000322  00        DB          0x0
 00000323  00        DB          0x0
 00000324  02        DB          0x2
 00000325  17        DB          0x17
 00000326  1D        DB          0x1D
 00000327  21        DB          0x21
 00000328  21        DB          0x21
 00000329  FF        DB          0xFF
 0000032A  FF        DB          0xFF
 0000032B  FF        DB          0xFF
 0000032C  FF        DB          0xFF
 0000032D  A7        DB          0xA7
 0000032E  A7        DB          0xA7
 0000032F  3A        DB          0x3A
 00000330  18        DB          0x18
 00000331  78        DB          0x78
 00000332  F8        DB          0xF8
 00000333  E8        DB          0xE8
 00000334  79        DB          0x79
 00000335  7B        DB          0x7B
 00000336  7A        DB          0x7A
 00000337  9E        DB          0x9E
 00000338  90        DB          0x90
 00000339  00        DB          0x0
 0000033A  FC        DB          0xFC
 0000033B  9E        DB          0x9E
 0000033C  9F        DB          0x9F
 0000033D  7F        DB          0x7F
 0000033E  60        DB          0x60
 0000033F  80        DB          0x80
 00000340  0E        DB          0xE
 00000341  0A        DB          0xA
 00000342  0A        DB          0xA
 00000343  0A        DB          0xA
 00000344  0A        DB          0xA
 00000345  0A        DB          0xA
 00000346  0A        DB          0xA
 00000347  0E        DB          0xE
 00000348  00        DB          0x0
 00000349  00        DB          0x0
 0000034A  00        DB          0x0
 0000034B  0E        DB          0xE
 0000034C  0A        DB          0xA
 0000034D  0A        DB          0xA
 0000034E  0A        DB          0xA
 0000034F  0A        DB          0xA
 00000350  0A        DB          0xA
 00000351  0E        DB          0xE
 00000352  0E        DB          0xE
 00000353  00        DB          0x0
 00000354  00        DB          0x0
 00000355  80        DB          0x80
 00000356  FF        DB          0xFF
 00000357  F8        DB          0xF8
 00000358  E8        DB          0xE8
 00000359  C0        DB          0xC0
 0000035A  C0        DB          0xC0
 0000035B  FE        DB          0xFE
 0000035C  FE        DB          0xFE
 0000035D  FE        DB          0xFE
 0000035E  22        DB          0x22
LARM LINKER/LOCATER V2.53                                                             06/10/2009  17:43:23  PAGE 10


 0000035F  22        DB          0x22
 00000360  22        DB          0x22
 00000361  22        DB          0x22
 00000362  22        DB          0x22
 00000363  22        DB          0x22
 00000364  FE        DB          0xFE
 00000365  22        DB          0x22
 00000366  22        DB          0x22
 00000367  22        DB          0x22
 00000368  22        DB          0x22
 00000369  22        DB          0x22
 0000036A  22        DB          0x22
 0000036B  22        DB          0x22
 0000036C  FE        DB          0xFE
 0000036D  FE        DB          0xFE
 0000036E  FE        DB          0xFE
 0000036F  32        DB          0x32
 00000370  00        DB          0x0
 00000371  00        DB          0x0
 00000372  00        DB          0x0
 00000373  FE        DB          0xFE
 00000374  82        DB          0x82
 00000375  BA        DB          0xBA
 00000376  3A        DB          0x3A
 00000377  3A        DB          0x3A
 00000378  62        DB          0x62
 00000379  62        DB          0x62
 0000037A  62        DB          0x62
 0000037B  62        DB          0x62
 0000037C  02        DB          0x2
 0000037D  FE        DB          0xFE
 0000037E  00        DB          0x0
 0000037F  00        DB          0x0
 00000380  00        DB          0x0
 00000381  FE        DB          0xFE
 00000382  FE        DB          0xFE
 00000383  FE        DB          0xFE
 00000384  FE        DB          0xFE
 00000385  22        DB          0x22
 00000386  22        DB          0x22
 00000387  22        DB          0x22
 00000388  22        DB          0x22
 00000389  FE        DB          0xFE
 0000038A  FE        DB          0xFE
 0000038B  22        DB          0x22
 0000038C  22        DB          0x22
 0000038D  22        DB          0x22
 0000038E  22        DB          0x22
 0000038F  22        DB          0x22
 00000390  FE        DB          0xFE
 00000391  FE        DB          0xFE
 00000392  FE        DB          0xFE
 00000393  E0        DB          0xE0
 00000394  7F        DB          0x7F
 00000395  FF        DB          0xFF
 00000396  C2        DB          0xC2
 00000397  DE        DB          0xDE
 00000398  7E        DB          0x7E
 00000399  FF        DB          0xFF
 0000039A  FF        DB          0xFF
 0000039B  FF        DB          0xFF
 0000039C  FF        DB          0xFF
 0000039D  00        DB          0x0
 0000039E  00        DB          0x0
 0000039F  00        DB          0x0
LARM LINKER/LOCATER V2.53                                                             06/10/2009  17:43:23  PAGE 11


 000003A0  00        DB          0x0
 000003A1  00        DB          0x0
 000003A2  00        DB          0x0
 000003A3  00        DB          0x0
 000003A4  00        DB          0x0
 000003A5  80        DB          0x80
 000003A6  80        DB          0x80
 000003A7  80        DB          0x80
 000003A8  60        DB          0x60
 000003A9  BF        DB          0xBF
 000003AA  FF        DB          0xFF
 000003AB  7F        DB          0x7F
 000003AC  FF        DB          0xFF
 000003AD  FF        DB          0xFF
 000003AE  E1        DB          0xE1
 000003AF  C3        DB          0xC3
 000003B0  CF        DB          0xCF
 000003B1  8C        DB          0x8C
 000003B2  89        DB          0x89
 000003B3  08        DB          0x8
 000003B4  08        DB          0x8
 000003B5  08        DB          0x8
 000003B6  08        DB          0x8
 000003B7  19        DB          0x19
 000003B8  3F        DB          0x3F
 000003B9  3B        DB          0x3B
 000003BA  0B        DB          0xB
 000003BB  4F        DB          0x4F
 000003BC  4F        DB          0x4F
 000003BD  49        DB          0x49
 000003BE  E9        DB          0xE9
 000003BF  FE        DB          0xFE
 000003C0  A8        DB          0xA8
 000003C1  A0        DB          0xA0
 000003C2  A0        DB          0xA0
 000003C3  20        DB          0x20
 000003C4  20        DB          0x20
 000003C5  20        DB          0x20
 000003C6  20        DB          0x20
 000003C7  20        DB          0x20
 000003C8  20        DB          0x20
 000003C9  20        DB          0x20
 000003CA  20        DB          0x20
 000003CB  20        DB          0x20
 000003CC  20        DB          0x20
 000003CD  20        DB          0x20
 000003CE  20        DB          0x20
 000003CF  20        DB          0x20
 000003D0  20        DB          0x20
 000003D1  20        DB          0x20
 000003D2  20        DB          0x20
 000003D3  20        DB          0x20
 000003D4  3C        DB          0x3C
 000003D5  3F        DB          0x3F
 000003D6  27        DB          0x27
 000003D7  2F        DB          0x2F
 000003D8  3F        DB          0x3F
 000003D9  3F        DB          0x3F
 000003DA  7D        DB          0x7D
 000003DB  49        DB          0x49
 000003DC  09        DB          0x9
 000003DD  E1        DB          0xE1
 000003DE  40        DB          0x40
 000003DF  48        DB          0x48
 000003E0  78        DB          0x78
LARM LINKER/LOCATER V2.53                                                             06/10/2009  17:43:23  PAGE 12


 000003E1  78        DB          0x78
 000003E2  78        DB          0x78
 000003E3  79        DB          0x79
 000003E4  49        DB          0x49
 000003E5  41        DB          0x41
 000003E6  4D        DB          0x4D
 000003E7  51        DB          0x51
 000003E8  19        DB          0x19
 000003E9  79        DB          0x79
 000003EA  49        DB          0x49
 000003EB  79        DB          0x79
 000003EC  31        DB          0x31
 000003ED  71        DB          0x71
 000003EE  49        DB          0x49
 000003EF  49        DB          0x49
 000003F0  C8        DB          0xC8
 000003F1  C8        DB          0xC8
 000003F2  78        DB          0x78
 000003F3  7F        DB          0x7F
 000003F4  50        DB          0x50
 000003F5  51        DB          0x51
 000003F6  40        DB          0x40
 000003F7  40        DB          0x40
 000003F8  40        DB          0x40
 000003F9  50        DB          0x50
 000003FA  50        DB          0x50
 000003FB  F0        DB          0xF0
 000003FC  E0        DB          0xE0
 000003FD  7F        DB          0x7F
 000003FE  18        DB          0x18
 000003FF  98        DB          0x98
 00000400  90        DB          0x90
 00000401  C9        DB          0xC9
 00000402  E9        DB          0xE9
 00000403  F9        DB          0xF9
 00000404  F9        DB          0xF9
 00000405  38        DB          0x38
 00000406  88        DB          0x88
 00000407  08        DB          0x8
 00000408  90        DB          0x90
 00000409  F1        DB          0xF1
 0000040A  79        DB          0x79
 0000040B  78        DB          0x78
 0000040C  A0        DB          0xA0
 0000040D  F8        DB          0xF8
 0000040E  F0        DB          0xF0
 0000040F  70        DB          0x70
 00000410  09        DB          0x9
 00000411  79        DB          0x79
 00000412  3F        DB          0x3F
 00000413  7F        DB          0x7F
 00000414  78        DB          0x78
 00000415  68        DB          0x68
 00000416  4D        DB          0x4D
 00000417  4C        DB          0x4C
 00000418  7C        DB          0x7C
 00000419  FF        DB          0xFF
 0000041A  FF        DB          0xFF
 0000041B  FF        DB          0xFF
 0000041C  FF        DB          0xFF
 0000041D  F8        DB          0xF8
 0000041E  00        DB          0x0
 0000041F  00        DB          0x0
 00000420  00        DB          0x0
 00000421  00        DB          0x0
LARM LINKER/LOCATER V2.53                                                             06/10/2009  17:43:23  PAGE 13


 00000422  00        DB          0x0
 00000423  00        DB          0x0
 00000424  00        DB          0x0
 00000425  00        DB          0x0
 00000426  00        DB          0x0
 00000427  00        DB          0x0
 00000428  00        DB          0x0
 00000429  00        DB          0x0
 0000042A  00        DB          0x0
 0000042B  00        DB          0x0
 0000042C  00        DB          0x0
 0000042D  00        DB          0x0
 0000042E  00        DB          0x0
 0000042F  00        DB          0x0
 00000430  00        DB          0x0
 00000431  00        DB          0x0
 00000432  00        DB          0x0
 00000433  00        DB          0x0
 00000434  00        DB          0x0
 00000435  00        DB          0x0
 00000436  00        DB          0x0
 00000437  00        DB          0x0
 00000438  00        DB          0x0
 00000439  00        DB          0x0
 0000043A  00        DB          0x0
 0000043B  00        DB          0x0
 0000043C  00        DB          0x0
 0000043D  00        DB          0x0
 0000043E  00        DB          0x0
 0000043F  00        DB          0x0
 00000440  01        DB          0x1
 00000441  01        DB          0x1
 00000442  03        DB          0x3
 00000443  03        DB          0x3
 00000444  03        DB          0x3
 00000445  06        DB          0x6
 00000446  06        DB          0x6
 00000447  0C        DB          0xC
 00000448  0C        DB          0xC
 00000449  18        DB          0x18
 0000044A  18        DB          0x18
 0000044B  10        DB          0x10
 0000044C  30        DB          0x30
 0000044D  20        DB          0x20
 0000044E  60        DB          0x60
 0000044F  60        DB          0x60
 00000450  C0        DB          0xC0
 00000451  C0        DB          0xC0
 00000452  80        DB          0x80
 00000453  80        DB          0x80
 00000454  00        DB          0x0
 00000455  00        DB          0x0
 00000456  00        DB          0x0
 00000457  00        DB          0x0
 00000458  00        DB          0x0
 00000459  00        DB          0x0
 0000045A  00        DB          0x0
 0000045B  00        DB          0x0
 0000045C  00        DB          0x0
 0000045D  01        DB          0x1
 0000045E  00        DB          0x0
 0000045F  02        DB          0x2
 00000460  02        DB          0x2
 00000461  06        DB          0x6
 00000462  06        DB          0x6
LARM LINKER/LOCATER V2.53                                                             06/10/2009  17:43:23  PAGE 14


 00000463  00        DB          0x0
 00000464  00        DB          0x0
 00000465  04        DB          0x4
 00000466  00        DB          0x0
 00000467  00        DB          0x0
 00000468  02        DB          0x2
 00000469  02        DB          0x2
 0000046A  22        DB          0x22
 0000046B  62        DB          0x62
 0000046C  62        DB          0x62
 0000046D  D0        DB          0xD0
 0000046E  D1        DB          0xD1
 0000046F  91        DB          0x91
 00000470  91        DB          0x91
 00000471  10        DB          0x10
 00000472  10        DB          0x10
 00000473  10        DB          0x10
 00000474  08        DB          0x8
 00000475  08        DB          0x8
 00000476  08        DB          0x8
 00000477  04        DB          0x4
 00000478  06        DB          0x6
 00000479  02        DB          0x2
 0000047A  01        DB          0x1
 0000047B  01        DB          0x1
 0000047C  00        DB          0x0
 0000047D  00        DB          0x0
 0000047E  00        DB          0x0
 0000047F  00        DB          0x0
 00000480  00        DB          0x0
 00000481  00        DB          0x0
 00000482  00        DB          0x0
 00000483  00        DB          0x0
 00000484  00        DB          0x0
 00000485  00        DB          0x0
 00000486  00        DB          0x0
 00000487  00        DB          0x0
 00000488  00        DB          0x0
 00000489  00        DB          0x0
 0000048A  00        DB          0x0
 0000048B  00        DB          0x0
 0000048C  00        DB          0x0
 0000048D  00        DB          0x0
 0000048E  00        DB          0x0
 0000048F  00        DB          0x0
 00000490  00        DB          0x0
 00000491  00        DB          0x0
 00000492  80        DB          0x80
 00000493  80        DB          0x80
 00000494  C0        DB          0xC0
 00000495  C0        DB          0xC0
 00000496  E0        DB          0xE0
 00000497  E0        DB          0xE0
 00000498  F8        DB          0xF8
 00000499  E7        DB          0xE7
 0000049A  EF        DB          0xEF
 0000049B  FF        DB          0xFF
 0000049C  77        DB          0x77
 0000049D  43        DB          0x43
 0000049E  00        DB          0x0
 0000049F  00        DB          0x0
 000004A0  00        DB          0x0
 000004A1  00        DB          0x0
 000004A2  00        DB          0x0
 000004A3  00        DB          0x0
LARM LINKER/LOCATER V2.53                                                             06/10/2009  17:43:23  PAGE 15


 000004A4  00        DB          0x0
 000004A5  00        DB          0x0
 000004A6  00        DB          0x0
 000004A7  80        DB          0x80
 000004A8  80        DB          0x80
 000004A9  00        DB          0x0
 000004AA  C0        DB          0xC0
 000004AB  C0        DB          0xC0
 000004AC  C0        DB          0xC0
 000004AD  C0        DB          0xC0
 000004AE  C0        DB          0xC0
 000004AF  C0        DB          0xC0
 000004B0  C0        DB          0xC0
 000004B1  C0        DB          0xC0
 000004B2  C0        DB          0xC0
 000004B3  C0        DB          0xC0
 000004B4  C0        DB          0xC0
 000004B5  C0        DB          0xC0
 000004B6  C0        DB          0xC0
 000004B7  C0        DB          0xC0
 000004B8  C0        DB          0xC0
 000004B9  C0        DB          0xC0
 000004BA  C0        DB          0xC0
 000004BB  C0        DB          0xC0
 000004BC  C0        DB          0xC0
 000004BD  40        DB          0x40
 000004BE  40        DB          0x40
 000004BF  40        DB          0x40
 000004C0  40        DB          0x40
 000004C1  40        DB          0x40
 000004C2  40        DB          0x40
 000004C3  40        DB          0x40
 000004C4  40        DB          0x40
 000004C5  40        DB          0x40
 000004C6  40        DB          0x40
 000004C7  40        DB          0x40
 000004C8  40        DB          0x40
 000004C9  40        DB          0x40
 000004CA  40        DB          0x40
 000004CB  40        DB          0x40
 000004CC  40        DB          0x40
 000004CD  40        DB          0x40
 000004CE  40        DB          0x40
 000004CF  60        DB          0x60
 000004D0  40        DB          0x40
 000004D1  40        DB          0x40
 000004D2  41        DB          0x41
 000004D3  41        DB          0x41
 000004D4  63        DB          0x63
 000004D5  63        DB          0x63
 000004D6  62        DB          0x62
 000004D7  66        DB          0x66
 000004D8  66        DB          0x66
 000004D9  6C        DB          0x6C
 000004DA  6C        DB          0x6C
 000004DB  78        DB          0x78
 000004DC  78        DB          0x78
 000004DD  78        DB          0x78
 000004DE  70        DB          0x70
 000004DF  70        DB          0x70
 000004E0  20        DB          0x20
 000004E1  00        DB          0x0
 000004E2  00        DB          0x0
 000004E3  00        DB          0x0
 000004E4  00        DB          0x0
LARM LINKER/LOCATER V2.53                                                             06/10/2009  17:43:23  PAGE 16


 000004E5  00        DB          0x0
 000004E6  00        DB          0x0
 000004E7  00        DB          0x0
 000004E8  00        DB          0x0
 000004E9  00        DB          0x0
 000004EA  00        DB          0x0
 000004EB  00        DB          0x0
 000004EC  00        DB          0x0
 000004ED  00        DB          0x0
 000004EE  00        DB          0x0
 000004EF  01        DB          0x1
 000004F0  01        DB          0x1
 000004F1  01        DB          0x1
 000004F2  03        DB          0x3
 000004F3  02        DB          0x2
 000004F4  06        DB          0x6
 000004F5  06        DB          0x6
 000004F6  0C        DB          0xC
 000004F7  0C        DB          0xC
 000004F8  18        DB          0x18
 000004F9  18        DB          0x18
 000004FA  30        DB          0x30
 000004FB  30        DB          0x30
 000004FC  30        DB          0x30
 000004FD  30        DB          0x30
 000004FE  30        DB          0x30
 000004FF  30        DB          0x30
 00000500  30        DB          0x30
 00000501  30        DB          0x30
 00000502  30        DB          0x30
 00000503  30        DB          0x30
 00000504  30        DB          0x30
 00000505  30        DB          0x30
 00000506  30        DB          0x30
 00000507  30        DB          0x30
 00000508  30        DB          0x30
 00000509  30        DB          0x30
 0000050A  30        DB          0x30
 0000050B  30        DB          0x30
 0000050C  30        DB          0x30
 0000050D  30        DB          0x30
 0000050E  30        DB          0x30
 0000050F  30        DB          0x30
 00000510  30        DB          0x30
 00000511  30        DB          0x30
 00000512  30        DB          0x30
 00000513  30        DB          0x30
 00000514  30        DB          0x30
 00000515  30        DB          0x30
 00000516  30        DB          0x30
 00000517  30        DB          0x30
 00000518  10        DB          0x10
 00000519  10        DB          0x10
 0000051A  00        DB          0x0
 0000051B  00        DB          0x0
 0000051C  00        DB          0x0
 0000051D  00        DB          0x0
 0000051E  00        DB          0x0
 0000051F  00        DB          0x0

*** Disassembly of Segment '?CON?Glcd':
 00000520            ALIGN       1
 00000520          defaultFont:
 00000520  7C        DB          0x7C
 00000521  A2        DB          0xA2
LARM LINKER/LOCATER V2.53                                                             06/10/2009  17:43:23  PAGE 17


 00000522  92        DB          0x92
 00000523  8A        DB          0x8A
 00000524  7C        DB          0x7C
 00000525  00        DB          0x0
 00000526  84        DB          0x84
 00000527  FE        DB          0xFE
 00000528  80        DB          0x80
 00000529  00        DB          0x0
 0000052A  84        DB          0x84
 0000052B  C2        DB          0xC2
 0000052C  A2        DB          0xA2
 0000052D  92        DB          0x92
 0000052E  8C        DB          0x8C
 0000052F  42        DB          0x42
 00000530  82        DB          0x82
 00000531  8A        DB          0x8A
 00000532  96        DB          0x96
 00000533  62        DB          0x62
 00000534  30        DB          0x30
 00000535  28        DB          0x28
 00000536  24        DB          0x24
 00000537  FE        DB          0xFE
 00000538  20        DB          0x20
 00000539  4E        DB          0x4E
 0000053A  8A        DB          0x8A
 0000053B  8A        DB          0x8A
 0000053C  8A        DB          0x8A
 0000053D  72        DB          0x72
 0000053E  78        DB          0x78
 0000053F  94        DB          0x94
 00000540  92        DB          0x92
 00000541  92        DB          0x92
 00000542  60        DB          0x60
 00000543  02        DB          0x2
 00000544  E2        DB          0xE2
 00000545  12        DB          0x12
 00000546  0A        DB          0xA
 00000547  06        DB          0x6
 00000548  6C        DB          0x6C
 00000549  92        DB          0x92
 0000054A  92        DB          0x92
 0000054B  92        DB          0x92
 0000054C  6C        DB          0x6C
 0000054D  0C        DB          0xC
 0000054E  92        DB          0x92
 0000054F  92        DB          0x92
 00000550  52        DB          0x52
 00000551  3C        DB          0x3C
 00000552  00        DB          0x0
 00000553  00        DB          0x0
 00000554  00        DB          0x0
 00000555  00        DB          0x0
 00000556  00        DB          0x0
 00000557  40        DB          0x40
 00000558  20        DB          0x20
 00000559  10        DB          0x10
 0000055A  08        DB          0x8
 0000055B  04        DB          0x4
 0000055C  FE        DB          0xFE
 0000055D  FE        DB          0xFE
 0000055E  7C        DB          0x7C
 0000055F  38        DB          0x38
 00000560  10        DB          0x10
 00000561  00        DB          0x0
 00000562  00        DB          0x0
LARM LINKER/LOCATER V2.53                                                             06/10/2009  17:43:23  PAGE 18


 00000563  04        DB          0x4
 00000564  00        DB          0x0
 00000565  00        DB          0x0
 00000566  00        DB          0x0
 00000567  00        DB          0x0
 00000568  05        DB          0x5
 00000569  00        DB          0x0
 0000056A  00        DB          0x0
 0000056B  00        DB          0x0
 0000056C  00        DB          0x0
 0000056D  06        DB          0x6
 0000056E  00        DB          0x0
 0000056F  00        DB          0x0
 00000570  00        DB          0x0
 00000571  00        DB          0x0
 00000572  07        DB          0x7
 00000573  00        DB          0x0
 00000574  00        DB          0x0
 00000575  FC        DB          0xFC
 00000576  22        DB          0x22
 00000577  22        DB          0x22
 00000578  22        DB          0x22
 00000579  FC        DB          0xFC
 0000057A  FE        DB          0xFE
 0000057B  92        DB          0x92
 0000057C  92        DB          0x92
 0000057D  92        DB          0x92
 0000057E  6C        DB          0x6C
 0000057F  7C        DB          0x7C
 00000580  82        DB          0x82
 00000581  82        DB          0x82
 00000582  82        DB          0x82
 00000583  44        DB          0x44
 00000584  FE        DB          0xFE
 00000585  82        DB          0x82
 00000586  82        DB          0x82
 00000587  44        DB          0x44
 00000588  38        DB          0x38
 00000589  FE        DB          0xFE
 0000058A  92        DB          0x92
 0000058B  92        DB          0x92
 0000058C  92        DB          0x92
 0000058D  82        DB          0x82
 0000058E  FE        DB          0xFE
 0000058F  12        DB          0x12
 00000590  12        DB          0x12
 00000591  12        DB          0x12
 00000592  02        DB          0x2
 00000593  7C        DB          0x7C
 00000594  82        DB          0x82
 00000595  82        DB          0x82
 00000596  92        DB          0x92
 00000597  F4        DB          0xF4
 00000598  FE        DB          0xFE
 00000599  10        DB          0x10
 0000059A  10        DB          0x10
 0000059B  10        DB          0x10
 0000059C  FE        DB          0xFE
 0000059D  00        DB          0x0
 0000059E  82        DB          0x82
 0000059F  FE        DB          0xFE
 000005A0  82        DB          0x82
 000005A1  00        DB          0x0
 000005A2  40        DB          0x40
 000005A3  80        DB          0x80
LARM LINKER/LOCATER V2.53                                                             06/10/2009  17:43:23  PAGE 19


 000005A4  82        DB          0x82
 000005A5  7E        DB          0x7E
 000005A6  02        DB          0x2
 000005A7  FE        DB          0xFE
 000005A8  10        DB          0x10
 000005A9  28        DB          0x28
 000005AA  44        DB          0x44
 000005AB  82        DB          0x82
 000005AC  FE        DB          0xFE
 000005AD  80        DB          0x80
 000005AE  80        DB          0x80
 000005AF  80        DB          0x80
 000005B0  80        DB          0x80
 000005B1  FE        DB          0xFE
 000005B2  04        DB          0x4
 000005B3  18        DB          0x18
 000005B4  04        DB          0x4
 000005B5  FE        DB          0xFE
 000005B6  FE        DB          0xFE
 000005B7  08        DB          0x8
 000005B8  10        DB          0x10
 000005B9  20        DB          0x20
 000005BA  FE        DB          0xFE
 000005BB  7C        DB          0x7C
 000005BC  82        DB          0x82
 000005BD  82        DB          0x82
 000005BE  82        DB          0x82
 000005BF  7C        DB          0x7C
 000005C0  FE        DB          0xFE
 000005C1  12        DB          0x12
 000005C2  12        DB          0x12
 000005C3  12        DB          0x12
 000005C4  0C        DB          0xC
 000005C5  7C        DB          0x7C
 000005C6  82        DB          0x82
 000005C7  A2        DB          0xA2
 000005C8  42        DB          0x42
 000005C9  BC        DB          0xBC
 000005CA  FE        DB          0xFE
 000005CB  12        DB          0x12
 000005CC  32        DB          0x32
 000005CD  52        DB          0x52
 000005CE  8C        DB          0x8C
 000005CF  8C        DB          0x8C
 000005D0  92        DB          0x92
 000005D1  92        DB          0x92
 000005D2  92        DB          0x92
 000005D3  62        DB          0x62
 000005D4  02        DB          0x2
 000005D5  02        DB          0x2
 000005D6  FE        DB          0xFE
 000005D7  02        DB          0x2
 000005D8  02        DB          0x2
 000005D9  7E        DB          0x7E
 000005DA  80        DB          0x80
 000005DB  80        DB          0x80
 000005DC  80        DB          0x80
 000005DD  7E        DB          0x7E
 000005DE  3E        DB          0x3E
 000005DF  40        DB          0x40
 000005E0  80        DB          0x80
 000005E1  40        DB          0x40
 000005E2  3E        DB          0x3E
 000005E3  7E        DB          0x7E
 000005E4  80        DB          0x80
LARM LINKER/LOCATER V2.53                                                             06/10/2009  17:43:23  PAGE 20


 000005E5  70        DB          0x70
 000005E6  80        DB          0x80
 000005E7  7E        DB          0x7E
 000005E8  C6        DB          0xC6
 000005E9  28        DB          0x28
 000005EA  10        DB          0x10
 000005EB  28        DB          0x28
 000005EC  C6        DB          0xC6
 000005ED  0E        DB          0xE
 000005EE  10        DB          0x10
 000005EF  E0        DB          0xE0
 000005F0  10        DB          0x10
 000005F1  0E        DB          0xE
 000005F2  C2        DB          0xC2
 000005F3  A2        DB          0xA2
 000005F4  92        DB          0x92
 000005F5  8A        DB          0x8A
 000005F6  86        DB          0x86

*** Disassembly of Segment '?C_CLRSEG':
 000005F8  40000490  DD          ?DT0?Demo
 000005FC  40000495  DD          ?DT0?Demo + 0x5
 00000600  40000498  DD          ?DT0?Glcd
 00000604  400004FC  DD          ?DT0?Glcd + 0x64
 00000608  00000000  DD          0x0
 0000060C  00000000  DD          0x0

*** Disassembly of Segment '?C_INITSEG':
 00000610  00000000  DD          0x0
 00000614  00000000  DD          0x0

*** Disassembly of Segment 'STACK':
   70:         DS   (USR_Stack_Size+3)&~3  ; Stack for User/System Mode 
 40000000            DS          1024
   71:         DS   (SVC_Stack_Size+3)&~3  ; Stack for Supervisor Mode
 40000400            DS          4
   72:         DS   (IRQ_Stack_Size+3)&~3  ; Stack for Interrupt Mode
 40000404            DS          128
   73:         DS   (FIQ_Stack_Size+3)&~3  ; Stack for Fast Interrupt Mode 
 40000484            DS          4
   74:         DS   (ABT_Stack_Size+3)&~3  ; Stack for Abort Mode
 40000488            DS          4
   75:         DS   (UND_Stack_Size+3)&~3  ; Stack for Undefined Mode
 4000048C            DS          4
   76: Top_Stack:
 40000490          Top_Stack:

*** Disassembly of Segment '?DT0?Demo':
   39: 	*someText;
 40000490            ALIGN       4
 40000490          someText:
 40000490            DS          4
   36: 	ii;
 40000494            ALIGN       1
 40000494          ii:
 40000494            DS          1

*** Disassembly of Segment '?DT0?Glcd':
 40000498            ALIGN       4
 40000498          pCtrlPIN:
 40000498            DS          4
 4000049C            ALIGN       4
 4000049C          pCtrlDIR:
 4000049C            DS          4
 400004A0            ALIGN       4
LARM LINKER/LOCATER V2.53                                                             06/10/2009  17:43:23  PAGE 21


 400004A0          pCtrlSET:
 400004A0            DS          4
 400004A4            ALIGN       4
 400004A4          pCtrlCLR:
 400004A4            DS          4
 400004A8            ALIGN       4
 400004A8          pDataPIN:
 400004A8            DS          4
 400004AC            ALIGN       4
 400004AC          pDataDIR:
 400004AC            DS          4
 400004B0            ALIGN       4
 400004B0          pDataSET:
 400004B0            DS          4
 400004B4            ALIGN       4
 400004B4          pDataCLR:
 400004B4            DS          4
 400004B8            ALIGN       4
 400004B8          fontDef:
 400004B8            DS          4
 400004BC            ALIGN       4
 400004BC          cs1Mask0:
 400004BC            DS          4
 400004C0            ALIGN       4
 400004C0          cs1Mask1:
 400004C0            DS          4
 400004C4            ALIGN       4
 400004C4          cs2Mask0:
 400004C4            DS          4
 400004C8            ALIGN       4
 400004C8          cs2Mask1:
 400004C8            DS          4
 400004CC            ALIGN       4
 400004CC          rsMask0:
 400004CC            DS          4
 400004D0            ALIGN       4
 400004D0          rsMask1:
 400004D0            DS          4
 400004D4            ALIGN       4
 400004D4          rwMask0:
 400004D4            DS          4
 400004D8            ALIGN       4
 400004D8          rwMask1:
 400004D8            DS          4
 400004DC            ALIGN       4
 400004DC          rstMask0:
 400004DC            DS          4
 400004E0            ALIGN       4
 400004E0          rstMask1:
 400004E0            DS          4
 400004E4            ALIGN       4
 400004E4          enMask0:
 400004E4            DS          4
 400004E8            ALIGN       4
 400004E8          enMask1:
 400004E8            DS          4
 400004EC            ALIGN       4
 400004EC          dataMask0:
 400004EC            DS          4
 400004F0            ALIGN       4
 400004F0          dataMask1:
 400004F0            DS          4
 400004F4            ALIGN       4
 400004F4          tempP2:
 400004F4            DS          4
LARM LINKER/LOCATER V2.53                                                             06/10/2009  17:43:23  PAGE 22


 400004F8            ALIGN       1
 400004F8          dataD0pos:
 400004F8            DS          1
 400004F9            ALIGN       1
 400004F9          fontW:
 400004F9            DS          1
 400004FA            ALIGN       1
 400004FA          fontH:
 400004FA            DS          1
 400004FB            ALIGN       1
 400004FB          fontOffset:
 400004FB            DS          1

*** Disassembly of Segment 'STARTUPCODE':
 FILE: 'Startup.S'
  170: __startup       PROC    CODE32
 00000000            ; SCOPE-START
  185: Vectors:        LDR     PC,Reset_Addr         
 00000000          Vectors:
 00000000  E59FF018  LDR         R15,[R15,#Reset_Addr]
  186:                 LDR     PC,Undef_Addr
 00000004  E59FF018  LDR         R15,[R15,#Undef_Addr]
  187:                 LDR     PC,SWI_Addr
 00000008  E59FF018  LDR         R15,[R15,#SWI_Addr]
  188:                 LDR     PC,PAbt_Addr
 0000000C  E59FF018  LDR         R15,[R15,#PAbt_Addr]
  189:                 LDR     PC,DAbt_Addr
 00000010  E59FF018  LDR         R15,[R15,#DAbt_Addr]
  190:                 NOP                            /* Reserved Vector */
 00000014  E1A00000  NOP       
  192:                 LDR     PC,[PC, #-0x0FF0]      /* Vector from VicVectAddr */
 00000018  E51FFFF0  LDR         R15,[R15,#-0xFF0]
  193:                 LDR     PC,FIQ_Addr
 0000001C  E59FF018  LDR         R15,[R15,#FIQ_Addr]
  195: Reset_Addr:     DD      Reset_Handler
 00000020          Reset_Addr:
 00000020  00000040  DD          Reset_Handler
  196: Undef_Addr:     DD      Undef_Handler?A
 00000024          Undef_Addr:
 00000024  00001220  DD          Undef_Handler?A
  197: SWI_Addr:       DD      SWI_Handler?A
 00000028          SWI_Addr:
 00000028  0000121C  DD          SWI_Handler?A
  198: PAbt_Addr:      DD      PAbt_Handler?A
 0000002C          PAbt_Addr:
 0000002C  00001218  DD          PAbt_Handler?A
  199: DAbt_Addr:      DD      DAbt_Handler?A
 00000030          DAbt_Addr:
 00000030  00001214  DD          DAbt_Handler?A
  200:                 DD      0                      /* Reserved Address */
 00000034  00000000  DD          0x0
  201: IRQ_Addr:       DD      IRQ_Handler?A
 00000038          IRQ_Addr:
 00000038  00001210  DD          IRQ_Handler?A
  202: FIQ_Addr:       DD      FIQ_Handler?A
 0000003C          FIQ_Addr:
 0000003C  0000120C  DD          FIQ_Handler?A
  207: Reset_Handler:  
 00000040          Reset_Handler:
  211:                 LDR     R0, =VPBDIV
 00000040  E59F00BC  LDR         R0,[PC,+188] ; PoolRef @0x104
  212:                 LDR     R1, =VPBDIV_Val
 00000044  E3A01000  MOV         R1,#VPBDIV_Val
  213:                 STR     R1, [R0]
 00000048  E5801000  STR         R1,[R0]
LARM LINKER/LOCATER V2.53                                                             06/10/2009  17:43:23  PAGE 23


  218:                 LDR     R0, =PLL_BASE
 0000004C  E59F00B4  LDR         R0,[PC,+180] ; PoolRef @0x108
  219:                 MOV     R1, #0xAA
 00000050  E3A010AA  MOV         R1,#0x00AA
  220:                 MOV     R2, #0x55
 00000054  E3A02055  MOV         R2,#0x0055
  223:                 MOV     R3, #PLLCFG_Val
 00000058  E3A03024  MOV         R3,#0x0024
  224:                 STR     R3, [R0, #PLLCFG_OFS] 
 0000005C  E5803004  STR         R3,[R0,#PLLCFG_OFS]
  225:                 MOV     R3, #PLLCON_PLLE
 00000060  E3A03001  MOV         R3,#0x0001
  226:                 STR     R3, [R0, #PLLCON_OFS]
 00000064  E5803000  STR         R3,[R0,#PLLCON_OFS]
  227:                 STR     R1, [R0, #PLLFEED_OFS]
 00000068  E580100C  STR         R1,[R0,#PLLFEED_OFS]
  228:                 STR     R2, [R0, #PLLFEED_OFS]
 0000006C  E580200C  STR         R2,[R0,#PLLFEED_OFS]
  231: PLL_Loop:       LDR     R3, [R0, #PLLSTAT_OFS]
 00000070          PLL_Loop:
 00000070  E5903008  LDR         R3,[R0,#PLLSTAT_OFS]
  232:                 ANDS    R3, R3, #PLLSTAT_PLOCK
 00000074  E2133B01  ANDS        R3,R3,#0x0400
  233:                 BEQ     PLL_Loop
 00000078  0AFFFFFC  BEQ         PLL_Loop  ; Targ=0x70
  236:                 MOV     R3, #(PLLCON_PLLE | PLLCON_PLLC)
 0000007C  E3A03003  MOV         R3,#0x0003
  237:                 STR     R3, [R0, #PLLCON_OFS]
 00000080  E5803000  STR         R3,[R0,#PLLCON_OFS]
  238:                 STR     R1, [R0, #PLLFEED_OFS]
 00000084  E580100C  STR         R1,[R0,#PLLFEED_OFS]
  239:                 STR     R2, [R0, #PLLFEED_OFS]
 00000088  E580200C  STR         R2,[R0,#PLLFEED_OFS]
  244:                 LDR     R0, =MAM_BASE
 0000008C  E59F0078  LDR         R0,[PC,+120] ; PoolRef @0x10C
  245:                 MOV     R1, #MAMTIM_Val
 00000090  E3A01004  MOV         R1,#0x0004
  246:                 STR     R1, [R0, #MAMTIM_OFS] 
 00000094  E5801004  STR         R1,[R0,#MAMTIM_OFS]
  247:                 MOV     R1, #MAMCR_Val
 00000098  E3A01002  MOV         R1,#0x0002
  248:                 STR     R1, [R0, #MAMCR_OFS] 
 0000009C  E5801000  STR         R1,[R0,#MAMCR_OFS]
  269:                 LDR     R0, =Top_Stack
 000000A0  E59F0068  LDR         R0,[PC,+104] ; PoolRef @0x110
  272:                 MSR     CPSR_c, #Mode_UND|I_Bit|F_Bit
 000000A4  E321F0DB  MSR         CPSR_c,#0xDB
  273:                 MOV     SP, R0
 000000A8  E1A0D000  MOV         R13,R0
  274:                 SUB     R0, R0, #UND_Stack_Size
 000000AC  E2400004  SUB         R0,R0,#0x0004
  277:                 MSR     CPSR_c, #Mode_ABT|I_Bit|F_Bit
 000000B0  E321F0D7  MSR         CPSR_c,#0xD7
  278:                 MOV     SP, R0
 000000B4  E1A0D000  MOV         R13,R0
  279:                 SUB     R0, R0, #ABT_Stack_Size
 000000B8  E2400004  SUB         R0,R0,#0x0004
  282:                 MSR     CPSR_c, #Mode_FIQ|I_Bit|F_Bit
 000000BC  E321F0D1  MSR         CPSR_c,#0xD1
  283:                 MOV     SP, R0
 000000C0  E1A0D000  MOV         R13,R0
  284:                 SUB     R0, R0, #FIQ_Stack_Size
 000000C4  E2400004  SUB         R0,R0,#0x0004
  287:                 MSR     CPSR_c, #Mode_IRQ|I_Bit|F_Bit
 000000C8  E321F0D2  MSR         CPSR_c,#0xD2
LARM LINKER/LOCATER V2.53                                                             06/10/2009  17:43:23  PAGE 24


  288:                 MOV     SP, R0
 000000CC  E1A0D000  MOV         R13,R0
  289:                 SUB     R0, R0, #IRQ_Stack_Size
 000000D0  E2400080  SUB         R0,R0,#0x0080
  292:                 MSR     CPSR_c, #Mode_SVC|I_Bit|F_Bit
 000000D4  E321F0D3  MSR         CPSR_c,#0xD3
  293:                 MOV     SP, R0
 000000D8  E1A0D000  MOV         R13,R0
  294:                 SUB     R0, R0, #SVC_Stack_Size
 000000DC  E2400004  SUB         R0,R0,#0x0004
  297:                 MSR     CPSR_c, #Mode_USR
 000000E0  E321F010  MSR         CPSR_c,#Mode_USR
  298:                 MOV     SP, R0
 000000E4  E1A0D000  MOV         R13,R0
  301:                 LDR     R0,=?C?INIT
 000000E8  E59F0024  LDR         R0,[PC,+36] ; PoolRef @0x114
  302:                 TST     R0,#1       ; Bit-0 set: INIT is Thumb
 000000EC  E3100001  TST         R0,#0x0001
  303:                 LDREQ   LR,=exit?A  ; ARM Mode
 000000F0  059FE020  LDREQ       R14,[PC,+32] ; PoolRef @0x118
  304:                 LDRNE   LR,=exit?T  ; Thumb Mode
 000000F4  159FE020  LDRNE       R14,[PC,+32] ; PoolRef @0x11C
  305:                 BX      R0
 000000F8  E12FFF10  BX          R0
  306:                 ENDP
 000000FC            ; SCOPE-END
  309: exit?A          PROC    CODE32
 000000FC            ; SCOPE-START
  310:                 B       exit?A
 000000FC  EAFFFFFE  B           exit?A  ; Targ=0xFC
  311:                 ENDP
 00000100            ; SCOPE-END
  314: exit?T          PROC    CODE16
 00000100            ; SCOPE-START
  315: exit:           B       exit?T
 00000100          exit:
 00000100  E7FE      B           exit?T  ; T=0x00000100
  316:                 ENDP
 00000102            ; SCOPE-END
 00000102            ALIGN       4
 00000104  E01FC100  DD          VPBDIV		; POOL-Entry U=1
 00000108  E01FC080  DD          PLL_BASE		; POOL-Entry U=1
 0000010C  E01FC000  DD          MAM_BASE		; POOL-Entry U=1
 00000110  40000490  DD          Top_Stack		; POOL-Entry U=1
 00000114  00000618  DD          ?C?INIT		; POOL-Entry U=1
 00000118  000000FC  DD          exit?A		; POOL-Entry U=1
 0000011C  00000101  DD          exit?T		; POOL-Entry U=1

*** Disassembly of Segment '?PR?main?Demo':
 FILE: 'Demo.c'
 00000618          ?C?INIT:  ; FUNCTION START
 00000618  E59F00E0  LDR         R0,[PC,+224] ; PoolRef @0x700 ; ?C?CLRTAB
 0000061C          L_145:
 0000061C  E8B00006  LDMIA       R0!,{R1-R2}
 00000620  E1A03001  MOV         R3,R1
 00000624  E1933002  ORRS        R3,R3,R2
 00000628  0A000005  BEQ         L_147  ; Targ=0x644
 0000062C  E3A03000  MOV         R3,#0x0000
 00000630          L_146:
 00000630  E5C13000  STRB        R3,[R1,#0x0]
 00000634  E2811001  ADD         R1,R1,#0x0001
 00000638  E1510002  CMP         R1,R2
 0000063C  1AFFFFFB  BNE         L_146  ; Targ=0x630
 00000640  EAFFFFF5  B           L_145  ; Targ=0x61C
 00000644          L_147:
LARM LINKER/LOCATER V2.53                                                             06/10/2009  17:43:23  PAGE 25


 00000644  E3A00E61  MOV         R0,#?C?INITTAB ; ?C?INITTAB
 00000648          L_148:
 00000648  E2800003  ADD         R0,R0,#0x0003
 0000064C  E3A03003  MOV         R3,#0x0003
 00000650  E1C00003  BIC         R0,R0,R3
 00000654  E8B00006  LDMIA       R0!,{R1-R2}
 00000658  E1A03001  MOV         R3,R1
 0000065C  E1933002  ORRS        R3,R3,R2
 00000660  0A000006  BEQ         L_150  ; Targ=0x680
 00000664          L_149:
 00000664  E5D03000  LDRB        R3,[R0,#0x0]
 00000668  E2800001  ADD         R0,R0,#0x0001
 0000066C  E5C13000  STRB        R3,[R1,#0x0]
 00000670  E2811001  ADD         R1,R1,#0x0001
 00000674  E1510002  CMP         R1,R2
 00000678  1AFFFFF9  BNE         L_149  ; Targ=0x664
 0000067C  EAFFFFF1  B           L_148  ; Targ=0x648
 00000680          L_150:
   44: int main (void)
 00000680          main:
 00000680  E92D4000  STMDB       R13!,{LR}
   46: 	PINSEL0 = 0;
 00000684  E3A01000  MOV         R1,#0x0
 00000688  E59F0074  LDR         R0,[PC,+116] ; PoolRef @0x704
 0000068C  E5801000  STR         R1,[R0,#0x0]
   47: 	PINSEL1 = 0;
 00000690  E59F0070  LDR         R0,[PC,+112] ; PoolRef @0x708
 00000694  E5801000  STR         R1,[R0,#0x0]
   48: 	PINSEL2 &= 0x0000000C;
 00000698  E59F006C  LDR         R0,[PC,+108] ; PoolRef @0x70C
 0000069C  E5901000  LDR         R1,[R0,#0x0]
 000006A0  E201100C  AND         R1,R1,#0x000C
 000006A4  E5801000  STR         R1,[R0,#0x0]
   62: 						&IOPIN0,	// Data Lines Port
 000006A8  E3A00008  MOV         R0,#0x8
 000006AC  E92D0001  STMDB       R13!,{R0}
 000006B0  E3A00002  MOV         R0,#0x2
 000006B4  E92D0001  STMDB       R13!,{R0}
 000006B8  E3A00005  MOV         R0,#0x5
 000006BC  E92D0001  STMDB       R13!,{R0}
 000006C0  E3A00001  MOV         R0,#0x1
 000006C4  E92D0001  STMDB       R13!,{R0}
 000006C8  E3A00000  MOV         R0,#0x0
 000006CC  E92D0001  STMDB       R13!,{R0}
 000006D0  E59F0038  LDR         R0,[PC,+56] ; PoolRef @0x710
 000006D4  E59F1034  LDR         R1,[PC,+52] ; PoolRef @0x710
 000006D8  E3A02003  MOV         R2,#0x3
 000006DC  E3A03004  MOV         R3,#0x4
 000006E0  EB0000BC  BL          Glcd_Init?A  ; Targ=0x9D8
 000006E4  E28DD014  ADD         R13,R13,#0x0014
   72: 	while (1)
 000006E8          L_3:
   76: 		Glcd_Image( maska_bmp );
 000006E8  E3A00E12  MOV         R0,#maska_bmp ; maska_bmp
 000006EC  EB000283  BL          Glcd_Image?A  ; Targ=0x1100
   77: 		delay_Nx10cyc (11999999);				// Delay 2s
 000006F0  E59F001C  LDR         R0,[PC,+28] ; PoolRef @0x714
 000006F4  EB0002BA  BL          delay_Nx10cyc?A  ; Targ=0x11E4
  110: 	}
 000006F8  EAFFFFFA  B           L_3  ; Targ=0x6E8
  111: }
 000006FC  E8BD8000  LDMIA       R13!,{PC}
 00000700            ; END 'main'

 00000700  000005F8  DD          ?C?CLRTAB		; POOL-Entry U=1
LARM LINKER/LOCATER V2.53                                                             06/10/2009  17:43:23  PAGE 26


 00000704  E002C000  DD          0xE002C000		; POOL-Entry U=1
 00000708  E002C004  DD          0xE002C004		; POOL-Entry U=1
 0000070C  E002C014  DD          0xE002C014		; POOL-Entry U=1
 00000710  E0028000  DD          0xE0028000		; POOL-Entry U=2
 00000714  00B71AFF  DD          0xB71AFF		; POOL-Entry U=1

*** Disassembly of Segment '?PR?DataOut?A?Glcd':
 FILE: '..\Glcd.c'
 00000718          DataOut?A:  ; FUNCTION START
 00000718  E92D4010  STMDB       R13!,{R4,LR}
 0000071C  E1A01000  MOV         R1,R0 ; dat
 00000720  ---- Variable 'dat' assigned to Register 'R1' ----
 00000720            ; SCOPE-START
 00000720  E1A00001  MOV         R0,R1 ; dat
 00000724  E1A04C00  MOV         R4,R0,LSL #24 ; dat
 00000728  E1A04C24  MOV         R4,R4,LSR #24
 0000072C  ---- Variable 'tmp' assigned to Register 'R4' ----
 0000072C  E59F306C  LDR         R3,[PC,+108] ; PoolRef @0x7A0 ; dataD0pos
 00000730  E5D30000  LDRB        R0,[R3,#0x0] ; dataD0pos
 00000734  E1A04014  MOV         R4,R4,LSL R0
 00000738  E5132008  LDR         R2,[R3,#0xFFFFFFF8] ; dataMask1
 0000073C  E0044002  AND         R4,R4,R2 ; tmp
 00000740  E5130044  LDR         R0,[R3,#0xFFFFFFBC] ; pDataCLR
 00000744  E5901000  LDR         R1,[R0,#0x0]
 00000748  E1811002  ORR         R1,R1,R2
 0000074C  E5801000  STR         R1,[R0,#0x0]
 00000750  E1A02004  MOV         R2,R4 ; tmp
 00000754  E5130048  LDR         R0,[R3,#0xFFFFFFB8] ; pDataSET
 00000758  E5901000  LDR         R1,[R0,#0x0]
 0000075C  E1811002  ORR         R1,R1,R2 ; tmp
 00000760  E5801000  STR         R1,[R0,#0x0]
 00000764  E3A00005  MOV         R0,#0x5
 00000768  EB00029D  BL          delay_Nx10cyc?A  ; Targ=0x11E4
 0000076C  E5132010  LDR         R2,[R3,#0xFFFFFFF0] ; enMask1
 00000770  E5130058  LDR         R0,[R3,#0xFFFFFFA8] ; pCtrlSET
 00000774  E5901000  LDR         R1,[R0,#0x0]
 00000778  E1811002  ORR         R1,R1,R2
 0000077C  E5801000  STR         R1,[R0,#0x0]
 00000780  E3A0001D  MOV         R0,#0x1D
 00000784  EB000296  BL          delay_Nx10cyc?A  ; Targ=0x11E4
 00000788  E5132010  LDR         R2,[R3,#0xFFFFFFF0] ; enMask1
 0000078C  E5130054  LDR         R0,[R3,#0xFFFFFFAC] ; pCtrlCLR
 00000790  E5901000  LDR         R1,[R0,#0x0]
 00000794  E1811002  ORR         R1,R1,R2
 00000798  E5801000  STR         R1,[R0,#0x0]
 0000079C            ; SCOPE-END
 0000079C  E8BD8010  LDMIA       R13!,{R4,PC}
 000007A0            ; END 'DataOut?A'

 000007A0  400004F8  DD          dataD0pos		; POOL-Entry U=1

*** Disassembly of Segment '?PR?DataIn?A?Glcd':
 FILE: '..\Glcd.c'
 000007A4          DataIn?A:  ; FUNCTION START
 000007A4  E92D4010  STMDB       R13!,{R4,LR}
 000007A8            ; SCOPE-START
 000007A8  E3A00005  MOV         R0,#0x5
 000007AC  EB00028C  BL          delay_Nx10cyc?A  ; Targ=0x11E4
 000007B0  E59F4048  LDR         R4,[PC,+72] ; PoolRef @0x800 ; enMask1
 000007B4  E5942000  LDR         R2,[R4,#0x0] ; enMask1
 000007B8  E5140048  LDR         R0,[R4,#0xFFFFFFB8] ; pCtrlSET
 000007BC  E5901000  LDR         R1,[R0,#0x0]
 000007C0  E1811002  ORR         R1,R1,R2
 000007C4  E5801000  STR         R1,[R0,#0x0]
 000007C8  E3A0001D  MOV         R0,#0x1D
LARM LINKER/LOCATER V2.53                                                             06/10/2009  17:43:23  PAGE 27


 000007CC  EB000284  BL          delay_Nx10cyc?A  ; Targ=0x11E4
 000007D0  E5140040  LDR         R0,[R4,#0xFFFFFFC0] ; pDataPIN
 000007D4  E5901000  LDR         R1,[R0,#0x0]
 000007D8  ---- Variable 'tmp' assigned to Register 'R1' ----
 000007D8  E5943000  LDR         R3,[R4,#0x0] ; enMask1
 000007DC  E5140044  LDR         R0,[R4,#0xFFFFFFBC] ; pCtrlCLR
 000007E0  E5902000  LDR         R2,[R0,#0x0]
 000007E4  E1822003  ORR         R2,R2,R3
 000007E8  E5802000  STR         R2,[R0,#0x0]
 000007EC  E5D40010  LDRB        R0,[R4,#0x10] ; dataD0pos
 000007F0  E1A01031  MOV         R1,R1,LSR R0
 000007F4  E1A00001  MOV         R0,R1 ; tmp
 000007F8  E20000FF  AND         R0,R0,#0x00FF ; tmp
 000007FC            ; SCOPE-END
 000007FC  E8BD8010  LDMIA       R13!,{R4,PC}
 00000800            ; END 'DataIn?A'

 00000800  400004E8  DD          enMask1		; POOL-Entry U=1

*** Disassembly of Segment '?PR?Glcd_Read_Data?A?Glcd':
 FILE: '..\Glcd.c'
 00000804          Glcd_Read_Data?A:  ; FUNCTION START
 00000804  E92D4010  STMDB       R13!,{R4,LR}
 00000808            ; SCOPE-START
 00000808  E59F4074  LDR         R4,[PC,+116] ; PoolRef @0x884 ; rsMask1
 0000080C  E5942000  LDR         R2,[R4,#0x0] ; rsMask1
 00000810  E5140030  LDR         R0,[R4,#0xFFFFFFD0] ; pCtrlSET
 00000814  E5901000  LDR         R1,[R0,#0x0]
 00000818  E1811002  ORR         R1,R1,R2
 0000081C  E5801000  STR         R1,[R0,#0x0]
 00000820  E5942008  LDR         R2,[R4,#0x8] ; rwMask1
 00000824  E5901000  LDR         R1,[R0,#0x0]
 00000828  E1811002  ORR         R1,R1,R2
 0000082C  E5801000  STR         R1,[R0,#0x0]
 00000830  E594201C  LDR         R2,[R4,#0x1C] ; dataMask0
 00000834  E5140024  LDR         R0,[R4,#0xFFFFFFDC] ; pDataDIR
 00000838  E5901000  LDR         R1,[R0,#0x0]
 0000083C  E0011002  AND         R1,R1,R2
 00000840  E5801000  STR         R1,[R0,#0x0]
 00000844  EBFFFFD6  BL          DataIn?A  ; Targ=0x7A4
 00000848  E1A01000  MOV         R1,R0 ; tmp
 0000084C  ---- Variable 'tmp' assigned to Register 'R1' ----
 0000084C  E5943008  LDR         R3,[R4,#0x8] ; rwMask1
 00000850  E514002C  LDR         R0,[R4,#0xFFFFFFD4] ; pCtrlCLR
 00000854  E5902000  LDR         R2,[R0,#0x0]
 00000858  E1822003  ORR         R2,R2,R3
 0000085C  E5802000  STR         R2,[R0,#0x0]
 00000860  E5943020  LDR         R3,[R4,#0x20] ; dataMask1
 00000864  E5140024  LDR         R0,[R4,#0xFFFFFFDC] ; pDataDIR
 00000868  E5902000  LDR         R2,[R0,#0x0]
 0000086C  E1822003  ORR         R2,R2,R3
 00000870  E5802000  STR         R2,[R0,#0x0]
 00000874  E1A00001  MOV         R0,R1 ; tmp
 00000878  E1A00C00  MOV         R0,R0,LSL #24 ; tmp
 0000087C  E1A00C20  MOV         R0,R0,LSR #24
 00000880            ; SCOPE-END
 00000880  E8BD8010  LDMIA       R13!,{R4,PC}
 00000884            ; END 'Glcd_Read_Data?A'

 00000884  400004D0  DD          rsMask1		; POOL-Entry U=1

*** Disassembly of Segment '?PR?Glcd_Write_Data?A?Glcd':
 FILE: '..\Glcd.c'
 00000888          Glcd_Write_Data?A:  ; FUNCTION START
 00000888  E92D4010  STMDB       R13!,{R4,LR}
LARM LINKER/LOCATER V2.53                                                             06/10/2009  17:43:23  PAGE 28


 0000088C  E1A01000  MOV         R1,R0 ; ddata
 00000890  ---- Variable 'ddata' assigned to Register 'R1' ----
 00000890  E59F0038  LDR         R0,[PC,+56] ; PoolRef @0x8D0 ; rsMask1
 00000894  E5904000  LDR         R4,[R0,#0x0] ; rsMask1
 00000898  E5102030  LDR         R2,[R0,#0xFFFFFFD0] ; pCtrlSET
 0000089C  E5923000  LDR         R3,[R2,#0x0]
 000008A0  E1833004  ORR         R3,R3,R4
 000008A4  E5823000  STR         R3,[R2,#0x0]
 000008A8  E5903008  LDR         R3,[R0,#0x8] ; rwMask1
 000008AC  E510002C  LDR         R0,[R0,#0xFFFFFFD4] ; pCtrlCLR
 000008B0  E5902000  LDR         R2,[R0,#0x0]
 000008B4  E1822003  ORR         R2,R2,R3
 000008B8  E5802000  STR         R2,[R0,#0x0]
 000008BC  E1A00001  MOV         R0,R1 ; ddata
 000008C0  E1A00C00  MOV         R0,R0,LSL #24 ; ddata
 000008C4  E1A00C20  MOV         R0,R0,LSR #24
 000008C8  EBFFFF92  BL          DataOut?A  ; Targ=0x718
 000008CC  E8BD8010  LDMIA       R13!,{R4,PC}
 000008D0            ; END 'Glcd_Write_Data?A'

 000008D0  400004D0  DD          rsMask1		; POOL-Entry U=1

*** Disassembly of Segment '?PR?Glcd_Write_Control?A?Glcd':
 FILE: '..\Glcd.c'
 000008D4          Glcd_Write_Control?A:  ; FUNCTION START
 000008D4  E92D4010  STMDB       R13!,{R4,LR}
 000008D8  E1A01000  MOV         R1,R0 ; ddata
 000008DC  ---- Variable 'ddata' assigned to Register 'R1' ----
 000008DC  E59F2034  LDR         R2,[PC,+52] ; PoolRef @0x918 ; rsMask1
 000008E0  E5924000  LDR         R4,[R2,#0x0] ; rsMask1
 000008E4  E512002C  LDR         R0,[R2,#0xFFFFFFD4] ; pCtrlCLR
 000008E8  E5903000  LDR         R3,[R0,#0x0]
 000008EC  E1833004  ORR         R3,R3,R4
 000008F0  E5803000  STR         R3,[R0,#0x0]
 000008F4  E5923008  LDR         R3,[R2,#0x8] ; rwMask1
 000008F8  E5902000  LDR         R2,[R0,#0x0]
 000008FC  E1822003  ORR         R2,R2,R3
 00000900  E5802000  STR         R2,[R0,#0x0]
 00000904  E1A00001  MOV         R0,R1 ; ddata
 00000908  E1A00C00  MOV         R0,R0,LSL #24 ; ddata
 0000090C  E1A00C20  MOV         R0,R0,LSR #24
 00000910  EBFFFF80  BL          DataOut?A  ; Targ=0x718
 00000914  E8BD8010  LDMIA       R13!,{R4,PC}
 00000918            ; END 'Glcd_Write_Control?A'

 00000918  400004D0  DD          rsMask1		; POOL-Entry U=1

*** Disassembly of Segment '?PR?Glcd_Set_Page?A?Glcd':
 FILE: '..\Glcd.c'
 0000091C          Glcd_Set_Page?A:  ; FUNCTION START
 0000091C  E92D4000  STMDB       R13!,{LR}
 00000920  E1A01000  MOV         R1,R0 ; page
 00000924  ---- Variable 'page' assigned to Register 'R1' ----
 00000924  E38110B8  ORR         R1,R1,#0x00B8 ; page
 00000928  E1A00001  MOV         R0,R1 ; page
 0000092C  E1A00C00  MOV         R0,R0,LSL #24 ; page
 00000930  E1A00C20  MOV         R0,R0,LSR #24
 00000934  EBFFFFE6  BL          Glcd_Write_Control?A  ; Targ=0x8D4
 00000938  E8BD8000  LDMIA       R13!,{PC}
 0000093C            ; END 'Glcd_Set_Page?A'


*** Disassembly of Segment '?PR?Glcd_Set_Side?A?Glcd':
 FILE: '..\Glcd.c'
 0000093C          Glcd_Set_Side?A:  ; FUNCTION START
LARM LINKER/LOCATER V2.53                                                             06/10/2009  17:43:23  PAGE 29


 0000093C  E1A01000  MOV         R1,R0 ; x_pos
 00000940  ---- Variable 'x_pos' assigned to Register 'R1' ----
 00000940  E201107F  AND         R1,R1,#0x007F ; x_pos
 00000944  E1A00001  MOV         R0,R1 ; x_pos
 00000948  E1A00C00  MOV         R0,R0,LSL #24 ; x_pos
 0000094C  E1A00C20  MOV         R0,R0,LSR #24
 00000950  E3100040  TST         R0,#0x0040
 00000954  0A00000B  BEQ         L_4  ; Targ=0x988
 00000958  E59F0058  LDR         R0,[PC,+88] ; PoolRef @0x9B8 ; cs1Mask1
 0000095C  E5903000  LDR         R3,[R0,#0x0] ; cs1Mask1
 00000960  E5101020  LDR         R1,[R0,#0xFFFFFFE0] ; pCtrlSET
 00000964  E5912000  LDR         R2,[R1,#0x0]
 00000968  E1822003  ORR         R2,R2,R3
 0000096C  E5812000  STR         R2,[R1,#0x0]
 00000970  E5902008  LDR         R2,[R0,#0x8] ; cs2Mask1
 00000974  E510001C  LDR         R0,[R0,#0xFFFFFFE4] ; pCtrlCLR
 00000978  E5901000  LDR         R1,[R0,#0x0]
 0000097C  E1811002  ORR         R1,R1,R2
 00000980  E5801000  STR         R1,[R0,#0x0]
 00000984  EA00000A  B           L_5  ; Targ=0x9B4
 00000988          L_4:
 00000988  E59F0028  LDR         R0,[PC,+40] ; PoolRef @0x9B8 ; cs1Mask1
 0000098C  E5903000  LDR         R3,[R0,#0x0] ; cs1Mask1
 00000990  E510101C  LDR         R1,[R0,#0xFFFFFFE4] ; pCtrlCLR
 00000994  E5912000  LDR         R2,[R1,#0x0]
 00000998  E1822003  ORR         R2,R2,R3
 0000099C  E5812000  STR         R2,[R1,#0x0]
 000009A0  E5902008  LDR         R2,[R0,#0x8] ; cs2Mask1
 000009A4  E5100020  LDR         R0,[R0,#0xFFFFFFE0] ; pCtrlSET
 000009A8  E5901000  LDR         R1,[R0,#0x0]
 000009AC  E1811002  ORR         R1,R1,R2
 000009B0  E5801000  STR         R1,[R0,#0x0]
 000009B4          L_5:
 000009B4  E12FFF1E  BX          R14
 000009B8            ; END 'Glcd_Set_Side?A'

 000009B8  400004C0  DD          cs1Mask1		; POOL-Entry U=2

*** Disassembly of Segment '?PR?Glcd_Set_X?A?Glcd':
 FILE: '..\Glcd.c'
 000009BC          Glcd_Set_X?A:  ; FUNCTION START
 000009BC  E92D4000  STMDB       R13!,{LR}
 000009C0  E1A01000  MOV         R1,R0 ; x_pos
 000009C4  ---- Variable 'x_pos' assigned to Register 'R1' ----
 000009C4  E201103F  AND         R1,R1,#0x003F ; x_pos
 000009C8  E3811040  ORR         R1,R1,#0x0040 ; x_pos
 000009CC  E1A00001  MOV         R0,R1 ; x_pos
 000009D0  EBFFFFBF  BL          Glcd_Write_Control?A  ; Targ=0x8D4
 000009D4  E8BD8000  LDMIA       R13!,{PC}
 000009D8            ; END 'Glcd_Set_X?A'


*** Disassembly of Segment '?PR?Glcd_Init?A?Glcd':
 FILE: '..\Glcd.c'
 000009D8          Glcd_Init?A:  ; FUNCTION START
 000009D8  E92D40F0  STMDB       R13!,{R4-R7,LR}
 000009DC  ---- Variable 'cs2_pin' assigned to Register 'R3' ----
 000009DC  ---- Variable 'cs1_pin' assigned to Register 'R2' ----
 000009DC  E1A04001  MOV         R4,R1 ; data_port
 000009E0  ---- Variable 'data_port' assigned to Register 'R4' ----
 000009E0  E1A05000  MOV         R5,R0 ; ctrl_port
 000009E4  ---- Variable 'ctrl_port' assigned to Register 'R5' ----
 000009E4  E1A01005  MOV         R1,R5 ; ctrl_port
 000009E8  E59F0314  LDR         R0,[PC,+788] ; PoolRef @0xD04 ; pCtrlPIN
 000009EC  E5801000  STR         R1,[R0,#0x0] ; pCtrlPIN
LARM LINKER/LOCATER V2.53                                                             06/10/2009  17:43:23  PAGE 30


 000009F0  E59F1310  LDR         R1,[PC,+784] ; PoolRef @0xD08
 000009F4  E59F0308  LDR         R0,[PC,+776] ; PoolRef @0xD04 ; pCtrlPIN
 000009F8  E5900000  LDR         R0,[R0,#0x0] ; pCtrlPIN
 000009FC  E1500001  CMP         R0,R1
 00000A00  1A000006  BNE         L_26  ; Targ=0xA20
 00000A04  E59F1300  LDR         R1,[PC,+768] ; PoolRef @0xD0C
 00000A08  E59F52F4  LDR         R5,[PC,+756] ; PoolRef @0xD04 ; pCtrlPIN
 00000A0C  E5851004  STR         R1,[R5,#0x4] ; pCtrlDIR
 00000A10  E59F12F8  LDR         R1,[PC,+760] ; PoolRef @0xD10
 00000A14  E5851008  STR         R1,[R5,#0x8] ; pCtrlSET
 00000A18  E59F12F4  LDR         R1,[PC,+756] ; PoolRef @0xD14
 00000A1C  E585100C  STR         R1,[R5,#0xC] ; pCtrlCLR
 00000A20          L_26:
 00000A20  E59F12F0  LDR         R1,[PC,+752] ; PoolRef @0xD18
 00000A24  E1500001  CMP         R0,R1
 00000A28  1A000006  BNE         L_27  ; Targ=0xA48
 00000A2C  E59F02E8  LDR         R0,[PC,+744] ; PoolRef @0xD1C
 00000A30  E59F12CC  LDR         R1,[PC,+716] ; PoolRef @0xD04 ; pCtrlPIN
 00000A34  E5810004  STR         R0,[R1,#0x4] ; pCtrlDIR
 00000A38  E59F02E0  LDR         R0,[PC,+736] ; PoolRef @0xD20
 00000A3C  E5810008  STR         R0,[R1,#0x8] ; pCtrlSET
 00000A40  E59F02DC  LDR         R0,[PC,+732] ; PoolRef @0xD24
 00000A44  E581000C  STR         R0,[R1,#0xC] ; pCtrlCLR
 00000A48          L_27:
 00000A48  E1A01004  MOV         R1,R4 ; data_port
 00000A4C  E59F02D4  LDR         R0,[PC,+724] ; PoolRef @0xD28 ; pDataPIN
 00000A50  E5801000  STR         R1,[R0,#0x0] ; pDataPIN
 00000A54  E59F12AC  LDR         R1,[PC,+684] ; PoolRef @0xD08
 00000A58  E59F02C8  LDR         R0,[PC,+712] ; PoolRef @0xD28 ; pDataPIN
 00000A5C  E5900000  LDR         R0,[R0,#0x0] ; pDataPIN
 00000A60  E1500001  CMP         R0,R1
 00000A64  1A000006  BNE         L_28  ; Targ=0xA84
 00000A68  E59F129C  LDR         R1,[PC,+668] ; PoolRef @0xD0C
 00000A6C  E59F4290  LDR         R4,[PC,+656] ; PoolRef @0xD04 ; pCtrlPIN
 00000A70  E5841014  STR         R1,[R4,#0x14] ; pDataDIR
 00000A74  E59F1294  LDR         R1,[PC,+660] ; PoolRef @0xD10
 00000A78  E5841018  STR         R1,[R4,#0x18] ; pDataSET
 00000A7C  E59F1290  LDR         R1,[PC,+656] ; PoolRef @0xD14
 00000A80  E584101C  STR         R1,[R4,#0x1C] ; pDataCLR
 00000A84          L_28:
 00000A84  E59F128C  LDR         R1,[PC,+652] ; PoolRef @0xD18
 00000A88  E1500001  CMP         R0,R1
 00000A8C  1A000006  BNE         L_29  ; Targ=0xAAC
 00000A90  E59F0284  LDR         R0,[PC,+644] ; PoolRef @0xD1C
 00000A94  E59F1268  LDR         R1,[PC,+616] ; PoolRef @0xD04 ; pCtrlPIN
 00000A98  E5810014  STR         R0,[R1,#0x14] ; pDataDIR
 00000A9C  E59F027C  LDR         R0,[PC,+636] ; PoolRef @0xD20
 00000AA0  E5810018  STR         R0,[R1,#0x18] ; pDataSET
 00000AA4  E59F0278  LDR         R0,[PC,+632] ; PoolRef @0xD24
 00000AA8  E581001C  STR         R0,[R1,#0x1C] ; pDataCLR
 00000AAC          L_29:
 00000AAC  E28D0024  ADD         R0,R13,#0x0024
 00000AB0  E5D00000  LDRB        R0,[R0,#0x0] ; D0_pin
 00000AB4  E59F4248  LDR         R4,[PC,+584] ; PoolRef @0xD04 ; pCtrlPIN
 00000AB8  E5C40060  STRB        R0,[R4,#0x60] ; dataD0pos
 00000ABC  E1A01000  MOV         R1,R0
 00000AC0  E3A000FF  MOV         R0,#0xFF
 00000AC4  E1A00110  MOV         R0,R0,LSL R1
 00000AC8  E5840058  STR         R0,[R4,#0x58] ; dataMask1
 00000ACC  E5949058  LDR         R9,[R4,#0x58] ; dataMask1
 00000AD0  E1E00009  MVN         R0,R9
 00000AD4  E5840054  STR         R0,[R4,#0x54] ; dataMask0
 00000AD8  E1A00002  MOV         R0,R2 ; cs1_pin
 00000ADC  E1A02C00  MOV         R2,R0,LSL #24 ; cs1_pin
 00000AE0  E1A02C22  MOV         R2,R2,LSR #24
LARM LINKER/LOCATER V2.53                                                             06/10/2009  17:43:23  PAGE 31


 00000AE4  E3A00001  MOV         R0,#0x1
 00000AE8  E1A01000  MOV         R1,R0
 00000AEC  E1A01211  MOV         R1,R1,LSL R2
 00000AF0  E5841028  STR         R1,[R4,#0x28] ; cs1Mask1
 00000AF4  E5948028  LDR         R8,[R4,#0x28] ; cs1Mask1
 00000AF8  E1E01008  MVN         R1,R8
 00000AFC  E5841024  STR         R1,[R4,#0x24] ; cs1Mask0
 00000B00  E1A01003  MOV         R1,R3 ; cs2_pin
 00000B04  E1A02C01  MOV         R2,R1,LSL #24 ; cs2_pin
 00000B08  E1A02C22  MOV         R2,R2,LSR #24
 00000B0C  E1A01000  MOV         R1,R0
 00000B10  E1A01211  MOV         R1,R1,LSL R2
 00000B14  E5841030  STR         R1,[R4,#0x30] ; cs2Mask1
 00000B18  E5947030  LDR         R7,[R4,#0x30] ; cs2Mask1
 00000B1C  E1E01007  MVN         R1,R7
 00000B20  E584102C  STR         R1,[R4,#0x2C] ; cs2Mask0
 00000B24  E28D1014  ADD         R1,R13,#0x0014
 00000B28  E5D11000  LDRB        R1,[R1,#0x0] ; rs_pin
 00000B2C  E1A02001  MOV         R2,R1
 00000B30  E1A01000  MOV         R1,R0
 00000B34  E1A01211  MOV         R1,R1,LSL R2
 00000B38  E5841038  STR         R1,[R4,#0x38] ; rsMask1
 00000B3C  E5943038  LDR         R3,[R4,#0x38] ; rsMask1
 00000B40  E1E01003  MVN         R1,R3
 00000B44  E5841034  STR         R1,[R4,#0x34] ; rsMask0
 00000B48  E28D1018  ADD         R1,R13,#0x0018
 00000B4C  E5D11000  LDRB        R1,[R1,#0x0] ; rw_pin
 00000B50  E1A02001  MOV         R2,R1
 00000B54  E1A01000  MOV         R1,R0
 00000B58  E1A01211  MOV         R1,R1,LSL R2
 00000B5C  E5841040  STR         R1,[R4,#0x40] ; rwMask1
 00000B60  E5942040  LDR         R2,[R4,#0x40] ; rwMask1
 00000B64  E1E01002  MVN         R1,R2
 00000B68  E584103C  STR         R1,[R4,#0x3C] ; rwMask0
 00000B6C  E28D101C  ADD         R1,R13,#0x001C
 00000B70  E5D11000  LDRB        R1,[R1,#0x0] ; rst_pin
 00000B74  E1A05001  MOV         R5,R1
 00000B78  E1A01000  MOV         R1,R0
 00000B7C  E1A01511  MOV         R1,R1,LSL R5
 00000B80  E5841048  STR         R1,[R4,#0x48] ; rstMask1
 00000B84  E5946048  LDR         R6,[R4,#0x48] ; rstMask1
 00000B88  E1E01006  MVN         R1,R6
 00000B8C  E5841044  STR         R1,[R4,#0x44] ; rstMask0
 00000B90  E28D1020  ADD         R1,R13,#0x0020
 00000B94  E5D11000  LDRB        R1,[R1,#0x0] ; en_pin
 00000B98  E1A00110  MOV         R0,R0,LSL R1
 00000B9C  E5840050  STR         R0,[R4,#0x50] ; enMask1
 00000BA0  E5945050  LDR         R5,[R4,#0x50] ; enMask1
 00000BA4  E1E00005  MVN         R0,R5
 00000BA8  E584004C  STR         R0,[R4,#0x4C] ; enMask0
 00000BAC  E5940014  LDR         R0,[R4,#0x14] ; pDataDIR
 00000BB0  E5901000  LDR         R1,[R0,#0x0]
 00000BB4  E1811009  ORR         R1,R1,R9
 00000BB8  E5801000  STR         R1,[R0,#0x0]
 00000BBC  E5940004  LDR         R0,[R4,#0x4] ; pCtrlDIR
 00000BC0  E5901000  LDR         R1,[R0,#0x0]
 00000BC4  E1811008  ORR         R1,R1,R8
 00000BC8  E5801000  STR         R1,[R0,#0x0]
 00000BCC  E5901000  LDR         R1,[R0,#0x0]
 00000BD0  E1811007  ORR         R1,R1,R7
 00000BD4  E5801000  STR         R1,[R0,#0x0]
 00000BD8  E5901000  LDR         R1,[R0,#0x0]
 00000BDC  E1811003  ORR         R1,R1,R3
 00000BE0  E5801000  STR         R1,[R0,#0x0]
 00000BE4  E5901000  LDR         R1,[R0,#0x0]
LARM LINKER/LOCATER V2.53                                                             06/10/2009  17:43:23  PAGE 32


 00000BE8  E1811002  ORR         R1,R1,R2
 00000BEC  E5801000  STR         R1,[R0,#0x0]
 00000BF0  E5901000  LDR         R1,[R0,#0x0]
 00000BF4  E1811005  ORR         R1,R1,R5
 00000BF8  E5801000  STR         R1,[R0,#0x0]
 00000BFC  E5901000  LDR         R1,[R0,#0x0]
 00000C00  E1811006  ORR         R1,R1,R6
 00000C04  E5801000  STR         R1,[R0,#0x0]
 00000C08  E594000C  LDR         R0,[R4,#0xC] ; pCtrlCLR
 00000C0C  E5901000  LDR         R1,[R0,#0x0]
 00000C10  E1811005  ORR         R1,R1,R5
 00000C14  E5801000  STR         R1,[R0,#0x0]
 00000C18  E5901000  LDR         R1,[R0,#0x0]
 00000C1C  E1811003  ORR         R1,R1,R3
 00000C20  E5801000  STR         R1,[R0,#0x0]
 00000C24  E5901000  LDR         R1,[R0,#0x0]
 00000C28  E1811002  ORR         R1,R1,R2
 00000C2C  E5801000  STR         R1,[R0,#0x0]
 00000C30  E59F00F4  LDR         R0,[PC,+244] ; PoolRef @0xD2C
 00000C34  EB00016A  BL          delay_Nx10cyc?A  ; Targ=0x11E4
 00000C38  E5942048  LDR         R2,[R4,#0x48] ; rstMask1
 00000C3C  E594000C  LDR         R0,[R4,#0xC] ; pCtrlCLR
 00000C40  E5901000  LDR         R1,[R0,#0x0]
 00000C44  E1811002  ORR         R1,R1,R2
 00000C48  E5801000  STR         R1,[R0,#0x0]
 00000C4C  E3A0003B  MOV         R0,#0x3B
 00000C50  EB000163  BL          delay_Nx10cyc?A  ; Targ=0x11E4
 00000C54  E5942048  LDR         R2,[R4,#0x48] ; rstMask1
 00000C58  E5940008  LDR         R0,[R4,#0x8] ; pCtrlSET
 00000C5C  E5901000  LDR         R1,[R0,#0x0]
 00000C60  E1811002  ORR         R1,R1,R2
 00000C64  E5801000  STR         R1,[R0,#0x0]
 00000C68  E59F00C0  LDR         R0,[PC,+192] ; PoolRef @0xD30
 00000C6C  EB00015C  BL          delay_Nx10cyc?A  ; Targ=0x11E4
 00000C70  E5942028  LDR         R2,[R4,#0x28] ; cs1Mask1
 00000C74  E594000C  LDR         R0,[R4,#0xC] ; pCtrlCLR
 00000C78  E5901000  LDR         R1,[R0,#0x0]
 00000C7C  E1811002  ORR         R1,R1,R2
 00000C80  E5801000  STR         R1,[R0,#0x0]
 00000C84  E5942030  LDR         R2,[R4,#0x30] ; cs2Mask1
 00000C88  E5940008  LDR         R0,[R4,#0x8] ; pCtrlSET
 00000C8C  E5901000  LDR         R1,[R0,#0x0]
 00000C90  E1811002  ORR         R1,R1,R2
 00000C94  E5801000  STR         R1,[R0,#0x0]
 00000C98  E3A0003F  MOV         R0,#0x3F
 00000C9C  EBFFFE9D  BL          DataOut?A  ; Targ=0x718
 00000CA0  E3A000C0  MOV         R0,#0xC0
 00000CA4  EBFFFE9B  BL          DataOut?A  ; Targ=0x718
 00000CA8  E5942028  LDR         R2,[R4,#0x28] ; cs1Mask1
 00000CAC  E5940008  LDR         R0,[R4,#0x8] ; pCtrlSET
 00000CB0  E5901000  LDR         R1,[R0,#0x0]
 00000CB4  E1811002  ORR         R1,R1,R2
 00000CB8  E5801000  STR         R1,[R0,#0x0]
 00000CBC  E5942030  LDR         R2,[R4,#0x30] ; cs2Mask1
 00000CC0  E594000C  LDR         R0,[R4,#0xC] ; pCtrlCLR
 00000CC4  E5901000  LDR         R1,[R0,#0x0]
 00000CC8  E1811002  ORR         R1,R1,R2
 00000CCC  E5801000  STR         R1,[R0,#0x0]
 00000CD0  E3A0003F  MOV         R0,#0x3F
 00000CD4  EBFFFE8F  BL          DataOut?A  ; Targ=0x718
 00000CD8  E3A000C0  MOV         R0,#0xC0
 00000CDC  EBFFFE8D  BL          DataOut?A  ; Targ=0x718
 00000CE0  E3A00E52  MOV         R0,#defaultFont ; defaultFont
 00000CE4  E5840020  STR         R0,[R4,#0x20] ; fontDef
 00000CE8  E3A00005  MOV         R0,#0x5
LARM LINKER/LOCATER V2.53                                                             06/10/2009  17:43:23  PAGE 33


 00000CEC  E5C40061  STRB        R0,[R4,#0x61] ; fontW
 00000CF0  E3A00007  MOV         R0,#0x7
 00000CF4  E5C40062  STRB        R0,[R4,#0x62] ; fontH
 00000CF8  E3A00030  MOV         R0,#0x30
 00000CFC  E5C40063  STRB        R0,[R4,#0x63] ; fontOffset
 00000D00  E8BD80F0  LDMIA       R13!,{R4-R7,PC}
 00000D04            ; END 'Glcd_Init?A'

 00000D04  40000498  DD          pCtrlPIN		; POOL-Entry U=7
 00000D08  E0028000  DD          0xE0028000		; POOL-Entry U=2
 00000D0C  E0028008  DD          0xE0028008		; POOL-Entry U=2
 00000D10  E0028004  DD          0xE0028004		; POOL-Entry U=2
 00000D14  E002800C  DD          0xE002800C		; POOL-Entry U=2
 00000D18  E0028010  DD          0xE0028010		; POOL-Entry U=2
 00000D1C  E0028018  DD          0xE0028018		; POOL-Entry U=2
 00000D20  E0028014  DD          0xE0028014		; POOL-Entry U=2
 00000D24  E002801C  DD          0xE002801C		; POOL-Entry U=2
 00000D28  400004A8  DD          pDataPIN		; POOL-Entry U=2
 00000D2C  000927BF  DD          0x927BF		; POOL-Entry U=1
 00000D30  00000257  DD          0x257		; POOL-Entry U=1

*** Disassembly of Segment '?PR?Glcd_Write_Char?A?Glcd':
 FILE: '..\Glcd.c'
 00000D34          Glcd_Write_Char?A:  ; FUNCTION START
 00000D34  E92D40F0  STMDB       R13!,{R4-R7,LR}
 00000D38  E1A06003  MOV         R6,R3 ; color
 00000D3C  ---- Variable 'color' assigned to Register 'R6' ----
 00000D3C  E1A07002  MOV         R7,R2 ; page_num
 00000D40  ---- Variable 'page_num' assigned to Register 'R7' ----
 00000D40  E1A05001  MOV         R5,R1 ; x_pos
 00000D44  ---- Variable 'x_pos' assigned to Register 'R5' ----
 00000D44  E1A02000  MOV         R2,R0 ; chr
 00000D48  ---- Variable 'chr' assigned to Register 'R2' ----
 00000D48  E24DD010  SUB         R13,R13,#0x0010
 00000D4C  ---- Variable 'rdata' assigned to Register 'R4' ----
 00000D4C            ; SCOPE-START
 00000D4C  E59F01E8  LDR         R0,[PC,+488] ; PoolRef @0xF3C ; fontOffset
 00000D50  E5D00000  LDRB        R0,[R0,#0x0] ; fontOffset
 00000D54  E1A01000  MOV         R1,R0
 00000D58  E1A00002  MOV         R0,R2 ; chr
 00000D5C  E1A00C00  MOV         R0,R0,LSL #24 ; chr
 00000D60  E1A00C20  MOV         R0,R0,LSR #24
 00000D64  E0400001  SUB         R0,R0,R1
 00000D68  E58D000C  STR         R0,[R13,#0xC] ; pointer
 00000D6C  E59F01CC  LDR         R0,[PC,+460] ; PoolRef @0xF40 ; fontW
 00000D70  E5D00000  LDRB        R0,[R0,#0x0] ; fontW
 00000D74  E1A01000  MOV         R1,R0
 00000D78  E59D000C  LDR         R0,[R13,#0xC] ; pointer
 00000D7C  E0000091  MUL         R0,R1,R0
 00000D80  E58D000C  STR         R0,[R13,#0xC] ; pointer
 00000D84  E1A00005  MOV         R0,R5 ; x_pos
 00000D88  EBFFFF0B  BL          Glcd_Set_X?A  ; Targ=0x9BC
 00000D8C  E1A00007  MOV         R0,R7 ; page_num
 00000D90  E1A00C00  MOV         R0,R0,LSL #24 ; page_num
 00000D94  E1A00C20  MOV         R0,R0,LSR #24
 00000D98  EBFFFEDF  BL          Glcd_Set_Page?A  ; Targ=0x91C
 00000D9C  E3A01000  MOV         R1,#0x0
 00000DA0  E28D0000  ADD         R0,R13,#0x0000
 00000DA4  E5C01000  STRB        R1,[R0,#0x0] ; ii
 00000DA8  EA00003A  B           L_32  ; Targ=0xE98
 00000DAC          L_33:
 00000DAC  E1A00005  MOV         R0,R5 ; x_pos
 00000DB0  EBFFFEE1  BL          Glcd_Set_Side?A  ; Targ=0x93C
 00000DB4  E1A00007  MOV         R0,R7 ; page_num
 00000DB8  E1A00C00  MOV         R0,R0,LSL #24 ; page_num
LARM LINKER/LOCATER V2.53                                                             06/10/2009  17:43:23  PAGE 34


 00000DBC  E1A00C20  MOV         R0,R0,LSR #24
 00000DC0  EBFFFED5  BL          Glcd_Set_Page?A  ; Targ=0x91C
 00000DC4  E1A00005  MOV         R0,R5 ; x_pos
 00000DC8  EBFFFEFB  BL          Glcd_Set_X?A  ; Targ=0x9BC
 00000DCC  EBFFFE8C  BL          Glcd_Read_Data?A  ; Targ=0x804
 00000DD0  E1A04000  MOV         R4,R0 ; rdata
 00000DD4  EBFFFE8A  BL          Glcd_Read_Data?A  ; Targ=0x804
 00000DD8  E1A04000  MOV         R4,R0 ; rdata
 00000DDC  E1A00005  MOV         R0,R5 ; x_pos
 00000DE0  EBFFFED5  BL          Glcd_Set_Side?A  ; Targ=0x93C
 00000DE4  E1A00007  MOV         R0,R7 ; page_num
 00000DE8  E1A00C00  MOV         R0,R0,LSL #24 ; page_num
 00000DEC  E1A00C20  MOV         R0,R0,LSR #24
 00000DF0  EBFFFEC9  BL          Glcd_Set_Page?A  ; Targ=0x91C
 00000DF4  E1A00005  MOV         R0,R5 ; x_pos
 00000DF8  EBFFFEEF  BL          Glcd_Set_X?A  ; Targ=0x9BC
 00000DFC  E59D100C  LDR         R1,[R13,#0xC] ; pointer
 00000E00  E2810001  ADD         R0,R1,#0x0001
 00000E04  E58D000C  STR         R0,[R13,#0xC] ; pointer
 00000E08  E59F0134  LDR         R0,[PC,+308] ; PoolRef @0xF44 ; fontDef
 00000E0C  E5900000  LDR         R0,[R0,#0x0] ; fontDef
 00000E10  E7D01001  LDRB        R1,[R0,+R1]
 00000E14  E28D0004  ADD         R0,R13,#0x0004
 00000E18  E5C01000  STRB        R1,[R0,#0x0] ; dama
 00000E1C  E5D00000  LDRB        R0,[R0,#0x0] ; dama
 00000E20  E1A01C00  MOV         R1,R0,LSL #24
 00000E24  E1A01C21  MOV         R1,R1,LSR #24
 00000E28  E1A02C01  MOV         R2,R1,LSL #24
 00000E2C  E1A02C42  MOV         R2,R2,ASR #24
 00000E30  E1E02002  MVN         R2,R2
 00000E34  E1A02C02  MOV         R2,R2,LSL #24
 00000E38  E1A02C22  MOV         R2,R2,LSR #24
 00000E3C  E28D1008  ADD         R1,R13,#0x0008
 00000E40  E5C12000  STRB        R2,[R1,#0x0] ; nema
 00000E44  E1A02006  MOV         R2,R6 ; color
 00000E48  E3520001  CMP         R2,#0x0001 ; color
 00000E4C  0A000005  BEQ         L_37  ; Targ=0xE68
 00000E50  E3520002  CMP         R2,#0x0002 ; color
 00000E54  0A000005  BEQ         L_38  ; Targ=0xE70
 00000E58  E3520000  CMP         R2,#0x0000 ; color
 00000E5C  1A000004  BNE         L_35  ; Targ=0xE74
 00000E60          L_36:
 00000E60  E5D14000  LDRB        R4,[R1,#0x0] ; nema
 00000E64  EA000002  B           L_35  ; Targ=0xE74
 00000E68          L_37:
 00000E68  E1A04000  MOV         R4,R0 ; rdata
 00000E6C  EA000000  B           L_35  ; Targ=0xE74
 00000E70          L_38:
 00000E70  E0244000  EOR         R4,R4,R0 ; rdata
 00000E74          L_35:
 00000E74  E1A00004  MOV         R0,R4 ; rdata
 00000E78  E1A00C00  MOV         R0,R0,LSL #24 ; rdata
 00000E7C  E1A00C20  MOV         R0,R0,LSR #24
 00000E80  EBFFFE80  BL          Glcd_Write_Data?A  ; Targ=0x888
 00000E84  E2855001  ADD         R5,R5,#0x0001 ; x_pos
 00000E88  E28D0000  ADD         R0,R13,#0x0000
 00000E8C  E5D01000  LDRB        R1,[R0,#0x0] ; ii
 00000E90  E2811001  ADD         R1,R1,#0x0001
 00000E94  E5C01000  STRB        R1,[R0,#0x0] ; ii
 00000E98          L_32:
 00000E98  E59F00A0  LDR         R0,[PC,+160] ; PoolRef @0xF40 ; fontW
 00000E9C  E5D00000  LDRB        R0,[R0,#0x0] ; fontW
 00000EA0  E1A01000  MOV         R1,R0
 00000EA4  E28D0000  ADD         R0,R13,#0x0000
 00000EA8  E5D00000  LDRB        R0,[R0,#0x0] ; ii
LARM LINKER/LOCATER V2.53                                                             06/10/2009  17:43:23  PAGE 35


 00000EAC  E1500001  CMP         R0,R1
 00000EB0  3AFFFFBD  BCC         L_33  ; Targ=0xDAC
 00000EB4  E1A00005  MOV         R0,R5 ; x_pos
 00000EB8  EBFFFE9F  BL          Glcd_Set_Side?A  ; Targ=0x93C
 00000EBC  E1A00007  MOV         R0,R7 ; page_num
 00000EC0  E1A00C00  MOV         R0,R0,LSL #24 ; page_num
 00000EC4  E1A00C20  MOV         R0,R0,LSR #24
 00000EC8  EBFFFE93  BL          Glcd_Set_Page?A  ; Targ=0x91C
 00000ECC  E1A00005  MOV         R0,R5 ; x_pos
 00000ED0  EBFFFEB9  BL          Glcd_Set_X?A  ; Targ=0x9BC
 00000ED4  E3A010FF  MOV         R1,#0xFF
 00000ED8  E28D0004  ADD         R0,R13,#0x0004
 00000EDC  E5C01000  STRB        R1,[R0,#0x0] ; dama
 00000EE0  E3A01000  MOV         R1,#0x0
 00000EE4  E28D5008  ADD         R5,R13,#0x0008
 00000EE8  E5C51000  STRB        R1,[R5,#0x0] ; nema
 00000EEC  E1A01006  MOV         R1,R6 ; color
 00000EF0  E3510001  CMP         R1,#0x0001 ; color
 00000EF4  0A000009  BEQ         L_41  ; Targ=0xF20
 00000EF8  E3510002  CMP         R1,#0x0002 ; color
 00000EFC  0A00000C  BEQ         L_39  ; Targ=0xF34
 00000F00  E3510000  CMP         R1,#0x0000 ; color
 00000F04  1A00000A  BNE         L_39  ; Targ=0xF34
 00000F08          L_40:
 00000F08  E5D04000  LDRB        R4,[R0,#0x0] ; dama
 00000F0C  E1A00004  MOV         R0,R4 ; rdata
 00000F10  E1A00C00  MOV         R0,R0,LSL #24 ; rdata
 00000F14  E1A00C20  MOV         R0,R0,LSR #24
 00000F18  EBFFFE5A  BL          Glcd_Write_Data?A  ; Targ=0x888
 00000F1C  EA000004  B           L_39  ; Targ=0xF34
 00000F20          L_41:
 00000F20  E5D54000  LDRB        R4,[R5,#0x0] ; nema
 00000F24  E1A00004  MOV         R0,R4 ; rdata
 00000F28  E1A00C00  MOV         R0,R0,LSL #24 ; rdata
 00000F2C  E1A00C20  MOV         R0,R0,LSR #24
 00000F30  EBFFFE54  BL          Glcd_Write_Data?A  ; Targ=0x888
 00000F34          L_39:
 00000F34            ; SCOPE-END
 00000F34  E28DD010  ADD         R13,R13,#0x0010
 00000F38  E8BD80F0  LDMIA       R13!,{R4-R7,PC}
 00000F3C            ; END 'Glcd_Write_Char?A'

 00000F3C  400004FB  DD          fontOffset		; POOL-Entry U=1
 00000F40  400004F9  DD          fontW		; POOL-Entry U=2
 00000F44  400004B8  DD          fontDef		; POOL-Entry U=1

*** Disassembly of Segment '?PR?GLCD_Dot?A?Glcd':
 FILE: '..\Glcd.c'
 00000F48          GLCD_Dot?A:  ; FUNCTION START
 00000F48  E92D40F0  STMDB       R13!,{R4-R7,LR}
 00000F4C  E1A05002  MOV         R5,R2 ; color
 00000F50  ---- Variable 'color' assigned to Register 'R5' ----
 00000F50  E1A06001  MOV         R6,R1 ; y_pos
 00000F54  ---- Variable 'y_pos' assigned to Register 'R6' ----
 00000F54  E1A07000  MOV         R7,R0 ; x_pos
 00000F58  ---- Variable 'x_pos' assigned to Register 'R7' ----
 00000F58            ; SCOPE-START
 00000F58  E207707F  AND         R7,R7,#0x007F ; x_pos
 00000F5C  E206603F  AND         R6,R6,#0x003F ; y_pos
 00000F60  E1A00007  MOV         R0,R7 ; x_pos
 00000F64  EBFFFE74  BL          Glcd_Set_Side?A  ; Targ=0x93C
 00000F68  E1A00006  MOV         R0,R6 ; y_pos
 00000F6C  E1A001A0  MOV         R0,R0,LSR #3 ; y_pos
 00000F70  EBFFFE69  BL          Glcd_Set_Page?A  ; Targ=0x91C
 00000F74  E1A00007  MOV         R0,R7 ; x_pos
LARM LINKER/LOCATER V2.53                                                             06/10/2009  17:43:23  PAGE 36


 00000F78  EBFFFE8F  BL          Glcd_Set_X?A  ; Targ=0x9BC
 00000F7C  E3A0003B  MOV         R0,#0x3B
 00000F80  EB000097  BL          delay_Nx10cyc?A  ; Targ=0x11E4
 00000F84  EBFFFE1E  BL          Glcd_Read_Data?A  ; Targ=0x804
 00000F88  E1A04000  MOV         R4,R0 ; ddata
 00000F8C  ---- Variable 'ddata' assigned to Register 'R4' ----
 00000F8C  E3A0003B  MOV         R0,#0x3B
 00000F90  EB000093  BL          delay_Nx10cyc?A  ; Targ=0x11E4
 00000F94  EBFFFE1A  BL          Glcd_Read_Data?A  ; Targ=0x804
 00000F98  E1A04000  MOV         R4,R0 ; ddata
 00000F9C  E3A0003B  MOV         R0,#0x3B
 00000FA0  EB00008F  BL          delay_Nx10cyc?A  ; Targ=0x11E4
 00000FA4  E1A00006  MOV         R0,R6 ; y_pos
 00000FA8  E1A001A0  MOV         R0,R0,LSR #3 ; y_pos
 00000FAC  EBFFFE5A  BL          Glcd_Set_Page?A  ; Targ=0x91C
 00000FB0  E1A00007  MOV         R0,R7 ; x_pos
 00000FB4  EBFFFE80  BL          Glcd_Set_X?A  ; Targ=0x9BC
 00000FB8  E1A01006  MOV         R1,R6 ; y_pos
 00000FBC  E2011007  AND         R1,R1,#0x0007 ; y_pos
 00000FC0  ---- Variable 'bit_line' assigned to Register 'R1' ----
 00000FC0  E1A00001  MOV         R0,R1 ; bit_line
 00000FC4  E3A01001  MOV         R1,#0x1
 00000FC8  E1A01011  MOV         R1,R1,LSL R0
 00000FCC  E1A00005  MOV         R0,R5 ; color
 00000FD0  E3500001  CMP         R0,#0x0001 ; color
 00000FD4  0A000009  BEQ         L_49  ; Targ=0x1000
 00000FD8  E3500002  CMP         R0,#0x0002 ; color
 00000FDC  0A00000C  BEQ         L_50  ; Targ=0x1014
 00000FE0  E3500000  CMP         R0,#0x0000 ; color
 00000FE4  1A00000E  BNE         L_47  ; Targ=0x1024
 00000FE8          L_48:
 00000FE8  E1E01001  MVN         R1,R1 ; bit_line
 00000FEC  E1A00001  MOV         R0,R1 ; bit_line
 00000FF0  E1A00C00  MOV         R0,R0,LSL #24 ; bit_line
 00000FF4  E1A00C20  MOV         R0,R0,LSR #24
 00000FF8  E0044000  AND         R4,R4,R0 ; ddata
 00000FFC  EA000008  B           L_47  ; Targ=0x1024
 00001000          L_49:
 00001000  E1A00001  MOV         R0,R1 ; bit_line
 00001004  E1A00C00  MOV         R0,R0,LSL #24 ; bit_line
 00001008  E1A00C20  MOV         R0,R0,LSR #24
 0000100C  E1844000  ORR         R4,R4,R0 ; ddata
 00001010  EA000003  B           L_47  ; Targ=0x1024
 00001014          L_50:
 00001014  E1A00001  MOV         R0,R1 ; bit_line
 00001018  E1A00C00  MOV         R0,R0,LSL #24 ; bit_line
 0000101C  E1A00C20  MOV         R0,R0,LSR #24
 00001020  E0244000  EOR         R4,R4,R0 ; ddata
 00001024          L_47:
 00001024  E1A00004  MOV         R0,R4 ; ddata
 00001028  E1A00C00  MOV         R0,R0,LSL #24 ; ddata
 0000102C  E1A00C20  MOV         R0,R0,LSR #24
 00001030  EBFFFE14  BL          Glcd_Write_Data?A  ; Targ=0x888
 00001034            ; SCOPE-END
 00001034  E8BD80F0  LDMIA       R13!,{R4-R7,PC}
 00001038            ; END 'GLCD_Dot?A'


*** Disassembly of Segment '?PR?Glcd_H_Line?A?Glcd':
 FILE: '..\Glcd.c'
 00001038          Glcd_H_Line?A:  ; FUNCTION START
 00001038  E92D40F0  STMDB       R13!,{R4-R7,LR}
 0000103C  E1A07003  MOV         R7,R3 ; color
 00001040  ---- Variable 'color' assigned to Register 'R7' ----
 00001040  E1A06002  MOV         R6,R2 ; y_pos
LARM LINKER/LOCATER V2.53                                                             06/10/2009  17:43:23  PAGE 37


 00001044  ---- Variable 'y_pos' assigned to Register 'R6' ----
 00001044  E1A05001  MOV         R5,R1 ; x_end
 00001048  ---- Variable 'x_end' assigned to Register 'R5' ----
 00001048  E1A04000  MOV         R4,R0 ; x_start
 0000104C  ---- Variable 'x_start' assigned to Register 'R4' ----
 0000104C            ; SCOPE-START
 0000104C  E1A01005  MOV         R1,R5 ; x_end
 00001050  E1A00004  MOV         R0,R4 ; x_start
 00001054  E1500001  CMP         R0,R1 ; x_start
 00001058  DA000002  BLE         L_69  ; Targ=0x1068
 0000105C  E1A00004  MOV         R0,R4 ; x_start
 00001060  ---- Variable 'loc' assigned to Register 'R0' ----
 00001060  E1A04005  MOV         R4,R5 ; x_end
 00001064  E1A05000  MOV         R5,R0 ; loc
 00001068          L_69:
 00001068  EA000006  B           L_66  ; Targ=0x1088
 0000106C          L_68:
 0000106C  E1A00004  MOV         R0,R4 ; x_start
 00001070  E1A01006  MOV         R1,R6 ; y_pos
 00001074  E1A02007  MOV         R2,R7 ; color
 00001078  E1A02802  MOV         R2,R2,LSL #16 ; color
 0000107C  E1A02822  MOV         R2,R2,LSR #16
 00001080  EBFFFFB0  BL          GLCD_Dot?A  ; Targ=0xF48
 00001084  E2844001  ADD         R4,R4,#0x0001 ; x_start
 00001088          L_66:
 00001088  E1A01005  MOV         R1,R5 ; x_end
 0000108C  E1A00004  MOV         R0,R4 ; x_start
 00001090  E1500001  CMP         R0,R1 ; x_start
 00001094  DAFFFFF4  BLE         L_68  ; Targ=0x106C
 00001098            ; SCOPE-END
 00001098  E8BD80F0  LDMIA       R13!,{R4-R7,PC}
 0000109C            ; END 'Glcd_H_Line?A'


*** Disassembly of Segment '?PR?Glcd_V_Line?A?Glcd':
 FILE: '..\Glcd.c'
 0000109C          Glcd_V_Line?A:  ; FUNCTION START
 0000109C  E92D40F0  STMDB       R13!,{R4-R7,LR}
 000010A0  E1A07003  MOV         R7,R3 ; color
 000010A4  ---- Variable 'color' assigned to Register 'R7' ----
 000010A4  E1A06002  MOV         R6,R2 ; x_pos
 000010A8  ---- Variable 'x_pos' assigned to Register 'R6' ----
 000010A8  E1A05001  MOV         R5,R1 ; y_end
 000010AC  ---- Variable 'y_end' assigned to Register 'R5' ----
 000010AC  E1A04000  MOV         R4,R0 ; y_start
 000010B0  ---- Variable 'y_start' assigned to Register 'R4' ----
 000010B0            ; SCOPE-START
 000010B0  E1A01005  MOV         R1,R5 ; y_end
 000010B4  E1A00004  MOV         R0,R4 ; y_start
 000010B8  E1500001  CMP         R0,R1 ; y_start
 000010BC  DA000002  BLE         L_74  ; Targ=0x10CC
 000010C0  E1A00004  MOV         R0,R4 ; y_start
 000010C4  ---- Variable 'loc' assigned to Register 'R0' ----
 000010C4  E1A04005  MOV         R4,R5 ; y_end
 000010C8  E1A05000  MOV         R5,R0 ; loc
 000010CC          L_74:
 000010CC  EA000006  B           L_71  ; Targ=0x10EC
 000010D0          L_73:
 000010D0  E1A00006  MOV         R0,R6 ; x_pos
 000010D4  E1A01004  MOV         R1,R4 ; y_start
 000010D8  E1A02007  MOV         R2,R7 ; color
 000010DC  E1A02C02  MOV         R2,R2,LSL #24 ; color
 000010E0  E1A02C22  MOV         R2,R2,LSR #24
 000010E4  EBFFFF97  BL          GLCD_Dot?A  ; Targ=0xF48
 000010E8  E2844001  ADD         R4,R4,#0x0001 ; y_start
LARM LINKER/LOCATER V2.53                                                             06/10/2009  17:43:23  PAGE 38


 000010EC          L_71:
 000010EC  E1A01005  MOV         R1,R5 ; y_end
 000010F0  E1A00004  MOV         R0,R4 ; y_start
 000010F4  E1500001  CMP         R0,R1 ; y_start
 000010F8  DAFFFFF4  BLE         L_73  ; Targ=0x10D0
 000010FC            ; SCOPE-END
 000010FC  E8BD80F0  LDMIA       R13!,{R4-R7,PC}
 00001100            ; END 'Glcd_V_Line?A'


*** Disassembly of Segment '?PR?Glcd_Image?A?Glcd':
 FILE: '..\Glcd.c'
 00001100          Glcd_Image?A:  ; FUNCTION START
 00001100  E92D40F0  STMDB       R13!,{R4-R7,LR}
 00001104  E1A06000  MOV         R6,R0 ; image
 00001108  ---- Variable 'image' assigned to Register 'R6' ----
 00001108            ; SCOPE-START
 00001108  E3A05000  MOV         R5,#0x0
 0000110C  ---- Variable 'pg' assigned to Register 'R5' ----
 0000110C  E3A04000  MOV         R4,#0x0
 00001110  ---- Variable 'clan_niza' assigned to Register 'R4' ----
 00001110  EA00002D  B           L_81  ; Targ=0x11CC
 00001114          L_83:
 00001114  E3A00000  MOV         R0,#0x0
 00001118  EBFFFE07  BL          Glcd_Set_Side?A  ; Targ=0x93C
 0000111C  E1A00005  MOV         R0,R5 ; pg
 00001120  E1A00C00  MOV         R0,R0,LSL #24 ; pg
 00001124  E1A00C20  MOV         R0,R0,LSR #24
 00001128  EBFFFDFB  BL          Glcd_Set_Page?A  ; Targ=0x91C
 0000112C  E3A00000  MOV         R0,#0x0
 00001130  EBFFFE21  BL          Glcd_Set_X?A  ; Targ=0x9BC
 00001134  E3A07000  MOV         R7,#0x0
 00001138  ---- Variable 'col' assigned to Register 'R7' ----
 00001138  EA000006  B           L_87  ; Targ=0x1158
 0000113C          L_88:
 0000113C  E1A01004  MOV         R1,R4 ; clan_niza
 00001140  E2814001  ADD         R4,R1,#0x0001 ; clan_niza
 00001144  E1A00006  MOV         R0,R6 ; image
 00001148  E7D00001  LDRB        R0,[R0,+R1]
 0000114C  EBFFFDCD  BL          Glcd_Write_Data?A  ; Targ=0x888
 00001150  E2877001  ADD         R7,R7,#0x0001 ; col
 00001154  E20770FF  AND         R7,R7,#0x00FF
 00001158          L_87:
 00001158  E1A00007  MOV         R0,R7 ; col
 0000115C  E1A00C00  MOV         R0,R0,LSL #24 ; col
 00001160  E1A00C20  MOV         R0,R0,LSR #24
 00001164  E350003F  CMP         R0,#0x003F
 00001168  DAFFFFF3  BLE         L_88  ; Targ=0x113C
 0000116C  E3A00040  MOV         R0,#0x40
 00001170  EBFFFDF1  BL          Glcd_Set_Side?A  ; Targ=0x93C
 00001174  E1A00005  MOV         R0,R5 ; pg
 00001178  E1A00C00  MOV         R0,R0,LSL #24 ; pg
 0000117C  E1A00C20  MOV         R0,R0,LSR #24
 00001180  EBFFFDE5  BL          Glcd_Set_Page?A  ; Targ=0x91C
 00001184  E3A00040  MOV         R0,#0x40
 00001188  EBFFFE0B  BL          Glcd_Set_X?A  ; Targ=0x9BC
 0000118C  E3A07040  MOV         R7,#0x40
 00001190  EA000006  B           L_92  ; Targ=0x11B0
 00001194          L_93:
 00001194  E1A01004  MOV         R1,R4 ; clan_niza
 00001198  E2814001  ADD         R4,R1,#0x0001 ; clan_niza
 0000119C  E1A00006  MOV         R0,R6 ; image
 000011A0  E7D00001  LDRB        R0,[R0,+R1]
 000011A4  EBFFFDB7  BL          Glcd_Write_Data?A  ; Targ=0x888
 000011A8  E2877001  ADD         R7,R7,#0x0001 ; col
LARM LINKER/LOCATER V2.53                                                             06/10/2009  17:43:23  PAGE 39


 000011AC  E20770FF  AND         R7,R7,#0x00FF
 000011B0          L_92:
 000011B0  E1A00007  MOV         R0,R7 ; col
 000011B4  E1A00C00  MOV         R0,R0,LSL #24 ; col
 000011B8  E1A00C20  MOV         R0,R0,LSR #24
 000011BC  E350007F  CMP         R0,#0x007F
 000011C0  DAFFFFF3  BLE         L_93  ; Targ=0x1194
 000011C4  E2855001  ADD         R5,R5,#0x0001 ; pg
 000011C8  E20550FF  AND         R5,R5,#0x00FF
 000011CC          L_81:
 000011CC  E1A00005  MOV         R0,R5 ; pg
 000011D0  E1A00C00  MOV         R0,R0,LSL #24 ; pg
 000011D4  E1A00C20  MOV         R0,R0,LSR #24
 000011D8  E3500007  CMP         R0,#0x0007
 000011DC  DAFFFFCC  BLE         L_83  ; Targ=0x1114
 000011E0            ; SCOPE-END
 000011E0  E8BD80F0  LDMIA       R13!,{R4-R7,PC}
 000011E4            ; END 'Glcd_Image?A'


*** Disassembly of Segment '?PR?delay_Nx10cyc?A?Utility':
 FILE: '..\Utility.c'
 000011E4          delay_Nx10cyc?A:  ; FUNCTION START
 000011E4  ---- Variable 'cnt' assigned to Register 'R0' ----
 000011E4  EA000003  B           L_32  ; Targ=0x11F8
 000011E8          L_34:
 000011E8  E1A00000  NOP       
 000011EC  E1A00000  NOP       
 000011F0  E1A00000  NOP       
 000011F4  E1A00000  NOP       
 000011F8          L_32:
 000011F8  E1A01000  MOV         R1,R0 ; cnt
 000011FC  E2410001  SUB         R0,R1,#0x0001 ; cnt
 00001200  E3510000  CMP         R1,#0x0000 ; cnt
 00001204  1AFFFFF7  BNE         L_34  ; Targ=0x11E8
 00001208  E12FFF1E  BX          R14
 0000120C            ; END 'delay_Nx10cyc?A'


*** Disassembly of Segment '?C?FIQ':
 FILE: 'fiq.s'
 0000120C            ; SCOPE-START
 0000120C  EAFFFFFE  B           $  ; Targ=0x120C
 00001210            ; SCOPE-END

*** Disassembly of Segment '?C?IRQ':
 FILE: 'irq.s'
 00001210            ; SCOPE-START
 00001210  EAFFFFFE  B           $  ; Targ=0x1210
 00001214            ; SCOPE-END

*** Disassembly of Segment '?C?DABT':
 FILE: 'dabt.s'
 00001214            ; SCOPE-START
 00001214  EAFFFFFE  B           $  ; Targ=0x1214
 00001218            ; SCOPE-END

*** Disassembly of Segment '?C?PABT':
 FILE: 'pabt.s'
 00001218            ; SCOPE-START
 00001218  EAFFFFFE  B           $  ; Targ=0x1218
 0000121C            ; SCOPE-END

*** Disassembly of Segment '?C?UNDEF':
 FILE: 'swi.s'
LARM LINKER/LOCATER V2.53                                                             06/10/2009  17:43:23  PAGE 40


 0000121C            ; SCOPE-START
 0000121C  EAFFFFFE  B           $  ; Targ=0x121C
 00001220            ; SCOPE-END
 00001220            ; SCOPE-START
 00001220  EAFFFFFE  B           $  ; Targ=0x1220
 00001224            ; SCOPE-END
